
bomb:     file format elf32-i386


Disassembly of section .init:

08048748 <_init>:
 8048748:	55                   	push   %ebp
 8048749:	89 e5                	mov    %esp,%ebp
 804874b:	53                   	push   %ebx
 804874c:	83 ec 04             	sub    $0x4,%esp
 804874f:	e8 00 00 00 00       	call   8048754 <_init+0xc>
 8048754:	5b                   	pop    %ebx
 8048755:	81 c3 ac 29 00 00    	add    $0x29ac,%ebx
 804875b:	8b 93 fc ff ff ff    	mov    -0x4(%ebx),%edx
 8048761:	85 d2                	test   %edx,%edx
 8048763:	74 05                	je     804876a <_init+0x22>
 8048765:	e8 d6 00 00 00       	call   8048840 <__gmon_start__@plt>
 804876a:	58                   	pop    %eax
 804876b:	5b                   	pop    %ebx
 804876c:	c9                   	leave  
 804876d:	c3                   	ret    

Disassembly of section .plt:

08048770 <read@plt-0x10>:
 8048770:	ff 35 04 b1 04 08    	pushl  0x804b104
 8048776:	ff 25 08 b1 04 08    	jmp    *0x804b108
 804877c:	00 00                	add    %al,(%eax)
	...

08048780 <read@plt>:
 8048780:	ff 25 0c b1 04 08    	jmp    *0x804b10c
 8048786:	68 00 00 00 00       	push   $0x0
 804878b:	e9 e0 ff ff ff       	jmp    8048770 <_init+0x28>

08048790 <printf@plt>:
 8048790:	ff 25 10 b1 04 08    	jmp    *0x804b110
 8048796:	68 08 00 00 00       	push   $0x8
 804879b:	e9 d0 ff ff ff       	jmp    8048770 <_init+0x28>

080487a0 <fflush@plt>:
 80487a0:	ff 25 14 b1 04 08    	jmp    *0x804b114
 80487a6:	68 10 00 00 00       	push   $0x10
 80487ab:	e9 c0 ff ff ff       	jmp    8048770 <_init+0x28>

080487b0 <memcpy@plt>:
 80487b0:	ff 25 18 b1 04 08    	jmp    *0x804b118
 80487b6:	68 18 00 00 00       	push   $0x18
 80487bb:	e9 b0 ff ff ff       	jmp    8048770 <_init+0x28>

080487c0 <fgets@plt>:
 80487c0:	ff 25 1c b1 04 08    	jmp    *0x804b11c
 80487c6:	68 20 00 00 00       	push   $0x20
 80487cb:	e9 a0 ff ff ff       	jmp    8048770 <_init+0x28>

080487d0 <signal@plt>:
 80487d0:	ff 25 20 b1 04 08    	jmp    *0x804b120
 80487d6:	68 28 00 00 00       	push   $0x28
 80487db:	e9 90 ff ff ff       	jmp    8048770 <_init+0x28>

080487e0 <sleep@plt>:
 80487e0:	ff 25 24 b1 04 08    	jmp    *0x804b124
 80487e6:	68 30 00 00 00       	push   $0x30
 80487eb:	e9 80 ff ff ff       	jmp    8048770 <_init+0x28>

080487f0 <alarm@plt>:
 80487f0:	ff 25 28 b1 04 08    	jmp    *0x804b128
 80487f6:	68 38 00 00 00       	push   $0x38
 80487fb:	e9 70 ff ff ff       	jmp    8048770 <_init+0x28>

08048800 <bcopy@plt>:
 8048800:	ff 25 2c b1 04 08    	jmp    *0x804b12c
 8048806:	68 40 00 00 00       	push   $0x40
 804880b:	e9 60 ff ff ff       	jmp    8048770 <_init+0x28>

08048810 <strcpy@plt>:
 8048810:	ff 25 30 b1 04 08    	jmp    *0x804b130
 8048816:	68 48 00 00 00       	push   $0x48
 804881b:	e9 50 ff ff ff       	jmp    8048770 <_init+0x28>

08048820 <getenv@plt>:
 8048820:	ff 25 34 b1 04 08    	jmp    *0x804b134
 8048826:	68 50 00 00 00       	push   $0x50
 804882b:	e9 40 ff ff ff       	jmp    8048770 <_init+0x28>

08048830 <puts@plt>:
 8048830:	ff 25 38 b1 04 08    	jmp    *0x804b138
 8048836:	68 58 00 00 00       	push   $0x58
 804883b:	e9 30 ff ff ff       	jmp    8048770 <_init+0x28>

08048840 <__gmon_start__@plt>:
 8048840:	ff 25 3c b1 04 08    	jmp    *0x804b13c
 8048846:	68 60 00 00 00       	push   $0x60
 804884b:	e9 20 ff ff ff       	jmp    8048770 <_init+0x28>

08048850 <exit@plt>:
 8048850:	ff 25 40 b1 04 08    	jmp    *0x804b140
 8048856:	68 68 00 00 00       	push   $0x68
 804885b:	e9 10 ff ff ff       	jmp    8048770 <_init+0x28>

08048860 <__libc_start_main@plt>:
 8048860:	ff 25 44 b1 04 08    	jmp    *0x804b144
 8048866:	68 70 00 00 00       	push   $0x70
 804886b:	e9 00 ff ff ff       	jmp    8048770 <_init+0x28>

08048870 <fprintf@plt>:
 8048870:	ff 25 48 b1 04 08    	jmp    *0x804b148
 8048876:	68 78 00 00 00       	push   $0x78
 804887b:	e9 f0 fe ff ff       	jmp    8048770 <_init+0x28>

08048880 <write@plt>:
 8048880:	ff 25 4c b1 04 08    	jmp    *0x804b14c
 8048886:	68 80 00 00 00       	push   $0x80
 804888b:	e9 e0 fe ff ff       	jmp    8048770 <_init+0x28>

08048890 <__isoc99_sscanf@plt>:
 8048890:	ff 25 50 b1 04 08    	jmp    *0x804b150
 8048896:	68 88 00 00 00       	push   $0x88
 804889b:	e9 d0 fe ff ff       	jmp    8048770 <_init+0x28>

080488a0 <fopen@plt>:
 80488a0:	ff 25 54 b1 04 08    	jmp    *0x804b154
 80488a6:	68 90 00 00 00       	push   $0x90
 80488ab:	e9 c0 fe ff ff       	jmp    8048770 <_init+0x28>

080488b0 <__errno_location@plt>:
 80488b0:	ff 25 58 b1 04 08    	jmp    *0x804b158
 80488b6:	68 98 00 00 00       	push   $0x98
 80488bb:	e9 b0 fe ff ff       	jmp    8048770 <_init+0x28>

080488c0 <sprintf@plt>:
 80488c0:	ff 25 5c b1 04 08    	jmp    *0x804b15c
 80488c6:	68 a0 00 00 00       	push   $0xa0
 80488cb:	e9 a0 fe ff ff       	jmp    8048770 <_init+0x28>

080488d0 <socket@plt>:
 80488d0:	ff 25 60 b1 04 08    	jmp    *0x804b160
 80488d6:	68 a8 00 00 00       	push   $0xa8
 80488db:	e9 90 fe ff ff       	jmp    8048770 <_init+0x28>

080488e0 <gethostbyname@plt>:
 80488e0:	ff 25 64 b1 04 08    	jmp    *0x804b164
 80488e6:	68 b0 00 00 00       	push   $0xb0
 80488eb:	e9 80 fe ff ff       	jmp    8048770 <_init+0x28>

080488f0 <strtol@plt>:
 80488f0:	ff 25 68 b1 04 08    	jmp    *0x804b168
 80488f6:	68 b8 00 00 00       	push   $0xb8
 80488fb:	e9 70 fe ff ff       	jmp    8048770 <_init+0x28>

08048900 <connect@plt>:
 8048900:	ff 25 6c b1 04 08    	jmp    *0x804b16c
 8048906:	68 c0 00 00 00       	push   $0xc0
 804890b:	e9 60 fe ff ff       	jmp    8048770 <_init+0x28>

08048910 <close@plt>:
 8048910:	ff 25 70 b1 04 08    	jmp    *0x804b170
 8048916:	68 c8 00 00 00       	push   $0xc8
 804891b:	e9 50 fe ff ff       	jmp    8048770 <_init+0x28>

08048920 <__ctype_b_loc@plt>:
 8048920:	ff 25 74 b1 04 08    	jmp    *0x804b174
 8048926:	68 d0 00 00 00       	push   $0xd0
 804892b:	e9 40 fe ff ff       	jmp    8048770 <_init+0x28>

Disassembly of section .text:

08048930 <_start>:
 8048930:	31 ed                	xor    %ebp,%ebp
 8048932:	5e                   	pop    %esi
 8048933:	89 e1                	mov    %esp,%ecx
 8048935:	83 e4 f0             	and    $0xfffffff0,%esp
 8048938:	50                   	push   %eax
 8048939:	54                   	push   %esp
 804893a:	52                   	push   %edx
 804893b:	68 a0 9f 04 08       	push   $0x8049fa0
 8048940:	68 b0 9f 04 08       	push   $0x8049fb0
 8048945:	51                   	push   %ecx
 8048946:	56                   	push   %esi
 8048947:	68 1c 8a 04 08       	push   $0x8048a1c
 804894c:	e8 0f ff ff ff       	call   8048860 <__libc_start_main@plt>
 8048951:	f4                   	hlt    
 8048952:	90                   	nop
 8048953:	90                   	nop
 8048954:	90                   	nop
 8048955:	90                   	nop
 8048956:	90                   	nop
 8048957:	90                   	nop
 8048958:	90                   	nop
 8048959:	90                   	nop
 804895a:	90                   	nop
 804895b:	90                   	nop
 804895c:	90                   	nop
 804895d:	90                   	nop
 804895e:	90                   	nop
 804895f:	90                   	nop

08048960 <deregister_tm_clones>:
 8048960:	b8 a3 b4 04 08       	mov    $0x804b4a3,%eax
 8048965:	2d a0 b4 04 08       	sub    $0x804b4a0,%eax
 804896a:	83 f8 06             	cmp    $0x6,%eax
 804896d:	77 02                	ja     8048971 <deregister_tm_clones+0x11>
 804896f:	f3 c3                	repz ret 
 8048971:	b8 00 00 00 00       	mov    $0x0,%eax
 8048976:	85 c0                	test   %eax,%eax
 8048978:	74 f5                	je     804896f <deregister_tm_clones+0xf>
 804897a:	55                   	push   %ebp
 804897b:	89 e5                	mov    %esp,%ebp
 804897d:	83 ec 18             	sub    $0x18,%esp
 8048980:	c7 04 24 a0 b4 04 08 	movl   $0x804b4a0,(%esp)
 8048987:	ff d0                	call   *%eax
 8048989:	c9                   	leave  
 804898a:	c3                   	ret    
 804898b:	90                   	nop
 804898c:	8d 74 26 00          	lea    0x0(%esi,%eiz,1),%esi

08048990 <register_tm_clones>:
 8048990:	b8 a0 b4 04 08       	mov    $0x804b4a0,%eax
 8048995:	2d a0 b4 04 08       	sub    $0x804b4a0,%eax
 804899a:	c1 f8 02             	sar    $0x2,%eax
 804899d:	89 c2                	mov    %eax,%edx
 804899f:	c1 ea 1f             	shr    $0x1f,%edx
 80489a2:	01 d0                	add    %edx,%eax
 80489a4:	d1 f8                	sar    %eax
 80489a6:	75 02                	jne    80489aa <register_tm_clones+0x1a>
 80489a8:	f3 c3                	repz ret 
 80489aa:	ba 00 00 00 00       	mov    $0x0,%edx
 80489af:	85 d2                	test   %edx,%edx
 80489b1:	74 f5                	je     80489a8 <register_tm_clones+0x18>
 80489b3:	55                   	push   %ebp
 80489b4:	89 e5                	mov    %esp,%ebp
 80489b6:	83 ec 18             	sub    $0x18,%esp
 80489b9:	89 44 24 04          	mov    %eax,0x4(%esp)
 80489bd:	c7 04 24 a0 b4 04 08 	movl   $0x804b4a0,(%esp)
 80489c4:	ff d2                	call   *%edx
 80489c6:	c9                   	leave  
 80489c7:	c3                   	ret    
 80489c8:	90                   	nop
 80489c9:	8d b4 26 00 00 00 00 	lea    0x0(%esi,%eiz,1),%esi

080489d0 <__do_global_dtors_aux>:
 80489d0:	80 3d c4 b4 04 08 00 	cmpb   $0x0,0x804b4c4
 80489d7:	75 13                	jne    80489ec <__do_global_dtors_aux+0x1c>
 80489d9:	55                   	push   %ebp
 80489da:	89 e5                	mov    %esp,%ebp
 80489dc:	83 ec 08             	sub    $0x8,%esp
 80489df:	e8 7c ff ff ff       	call   8048960 <deregister_tm_clones>
 80489e4:	c6 05 c4 b4 04 08 01 	movb   $0x1,0x804b4c4
 80489eb:	c9                   	leave  
 80489ec:	f3 c3                	repz ret 
 80489ee:	66 90                	xchg   %ax,%ax

080489f0 <frame_dummy>:
 80489f0:	a1 08 b0 04 08       	mov    0x804b008,%eax
 80489f5:	85 c0                	test   %eax,%eax
 80489f7:	74 1e                	je     8048a17 <frame_dummy+0x27>
 80489f9:	b8 00 00 00 00       	mov    $0x0,%eax
 80489fe:	85 c0                	test   %eax,%eax
 8048a00:	74 15                	je     8048a17 <frame_dummy+0x27>
 8048a02:	55                   	push   %ebp
 8048a03:	89 e5                	mov    %esp,%ebp
 8048a05:	83 ec 18             	sub    $0x18,%esp
 8048a08:	c7 04 24 08 b0 04 08 	movl   $0x804b008,(%esp)
 8048a0f:	ff d0                	call   *%eax
 8048a11:	c9                   	leave  
 8048a12:	e9 79 ff ff ff       	jmp    8048990 <register_tm_clones>
 8048a17:	e9 74 ff ff ff       	jmp    8048990 <register_tm_clones>

08048a1c <main>:
 8048a1c:	55                   	push   %ebp
 8048a1d:	89 e5                	mov    %esp,%ebp
 8048a1f:	53                   	push   %ebx
 8048a20:	83 e4 f0             	and    $0xfffffff0,%esp
 8048a23:	83 ec 10             	sub    $0x10,%esp
 8048a26:	8b 45 08             	mov    0x8(%ebp),%eax
 8048a29:	8b 5d 0c             	mov    0xc(%ebp),%ebx
 8048a2c:	83 f8 01             	cmp    $0x1,%eax
 8048a2f:	75 0c                	jne    8048a3d <main+0x21>
 8048a31:	a1 a4 b4 04 08       	mov    0x804b4a4,%eax
 8048a36:	a3 cc b4 04 08       	mov    %eax,0x804b4cc
 8048a3b:	eb 64                	jmp    8048aa1 <main+0x85>
 8048a3d:	83 f8 02             	cmp    $0x2,%eax
 8048a40:	75 41                	jne    8048a83 <main+0x67>
 8048a42:	c7 44 24 04 30 a0 04 	movl   $0x804a030,0x4(%esp)
 8048a49:	08 
 8048a4a:	8b 43 04             	mov    0x4(%ebx),%eax
 8048a4d:	89 04 24             	mov    %eax,(%esp)
 8048a50:	e8 4b fe ff ff       	call   80488a0 <fopen@plt>
 8048a55:	a3 cc b4 04 08       	mov    %eax,0x804b4cc
 8048a5a:	85 c0                	test   %eax,%eax
 8048a5c:	75 43                	jne    8048aa1 <main+0x85>
 8048a5e:	8b 43 04             	mov    0x4(%ebx),%eax
 8048a61:	89 44 24 08          	mov    %eax,0x8(%esp)
 8048a65:	8b 03                	mov    (%ebx),%eax
 8048a67:	89 44 24 04          	mov    %eax,0x4(%esp)
 8048a6b:	c7 04 24 32 a0 04 08 	movl   $0x804a032,(%esp)
 8048a72:	e8 19 fd ff ff       	call   8048790 <printf@plt>
 8048a77:	c7 04 24 08 00 00 00 	movl   $0x8,(%esp)
 8048a7e:	e8 cd fd ff ff       	call   8048850 <exit@plt>
 8048a83:	8b 03                	mov    (%ebx),%eax
 8048a85:	89 44 24 04          	mov    %eax,0x4(%esp)
 8048a89:	c7 04 24 4f a0 04 08 	movl   $0x804a04f,(%esp)
 8048a90:	e8 fb fc ff ff       	call   8048790 <printf@plt>
 8048a95:	c7 04 24 08 00 00 00 	movl   $0x8,(%esp)
 8048a9c:	e8 af fd ff ff       	call   8048850 <exit@plt>
 8048aa1:	e8 82 06 00 00       	call   8049128 <initialize_bomb>
 8048aa6:	c7 04 24 b4 a0 04 08 	movl   $0x804a0b4,(%esp)
 8048aad:	e8 7e fd ff ff       	call   8048830 <puts@plt>
 8048ab2:	c7 04 24 f0 a0 04 08 	movl   $0x804a0f0,(%esp)
 8048ab9:	e8 72 fd ff ff       	call   8048830 <puts@plt>
 8048abe:	e8 2b 07 00 00       	call   80491ee <read_line>
 8048ac3:	89 04 24             	mov    %eax,(%esp)
 8048ac6:	e8 a5 00 00 00       	call   8048b70 <phase_1>
 8048acb:	e8 7a 08 00 00       	call   804934a <phase_defused>
 8048ad0:	c7 04 24 1c a1 04 08 	movl   $0x804a11c,(%esp)
 8048ad7:	e8 54 fd ff ff       	call   8048830 <puts@plt>
 8048adc:	e8 0d 07 00 00       	call   80491ee <read_line>
 8048ae1:	89 04 24             	mov    %eax,(%esp)
 8048ae4:	e8 ab 00 00 00       	call   8048b94 <phase_2>
 8048ae9:	e8 5c 08 00 00       	call   804934a <phase_defused>
 8048aee:	c7 04 24 69 a0 04 08 	movl   $0x804a069,(%esp)
 8048af5:	e8 36 fd ff ff       	call   8048830 <puts@plt>
 8048afa:	e8 ef 06 00 00       	call   80491ee <read_line>
 8048aff:	89 04 24             	mov    %eax,(%esp)
 8048b02:	e8 e3 00 00 00       	call   8048bea <phase_3>
 8048b07:	e8 3e 08 00 00       	call   804934a <phase_defused>
 8048b0c:	c7 04 24 87 a0 04 08 	movl   $0x804a087,(%esp)
 8048b13:	e8 18 fd ff ff       	call   8048830 <puts@plt>
 8048b18:	e8 d1 06 00 00       	call   80491ee <read_line>
 8048b1d:	89 04 24             	mov    %eax,(%esp)
 8048b20:	e8 7b 02 00 00       	call   8048da0 <phase_4>
 8048b25:	e8 20 08 00 00       	call   804934a <phase_defused>
 8048b2a:	c7 04 24 48 a1 04 08 	movl   $0x804a148,(%esp)
 8048b31:	e8 fa fc ff ff       	call   8048830 <puts@plt>
 8048b36:	e8 b3 06 00 00       	call   80491ee <read_line>
 8048b3b:	89 04 24             	mov    %eax,(%esp)
 8048b3e:	e8 bf 02 00 00       	call   8048e02 <phase_5>
 8048b43:	e8 02 08 00 00       	call   804934a <phase_defused>
 8048b48:	c7 04 24 96 a0 04 08 	movl   $0x804a096,(%esp)
 8048b4f:	e8 dc fc ff ff       	call   8048830 <puts@plt>
 8048b54:	e8 95 06 00 00       	call   80491ee <read_line>
 8048b59:	89 04 24             	mov    %eax,(%esp)
 8048b5c:	e8 0d 03 00 00       	call   8048e6e <phase_6>
 8048b61:	e8 e4 07 00 00       	call   804934a <phase_defused>
 8048b66:	b8 00 00 00 00       	mov    $0x0,%eax
 8048b6b:	8b 5d fc             	mov    -0x4(%ebp),%ebx
 8048b6e:	c9                   	leave  
 8048b6f:	c3                   	ret    

08048b70 <phase_1>:
 8048b70:	83 ec 1c             	sub    $0x1c,%esp
 8048b73:	c7 44 24 04 6c a1 04 	movl   $0x804a16c,0x4(%esp)
 8048b7a:	08 
 8048b7b:	8b 44 24 20          	mov    0x20(%esp),%eax
 8048b7f:	89 04 24             	mov    %eax,(%esp)
 8048b82:	e8 33 05 00 00       	call   80490ba <strings_not_equal>
 8048b87:	85 c0                	test   %eax,%eax
 8048b89:	74 05                	je     8048b90 <phase_1+0x20>
 8048b8b:	e8 37 06 00 00       	call   80491c7 <explode_bomb>
 8048b90:	83 c4 1c             	add    $0x1c,%esp
 8048b93:	c3                   	ret    

08048b94 <phase_2>:
 8048b94:	56                   	push   %esi
 8048b95:	53                   	push   %ebx
 8048b96:	83 ec 34             	sub    $0x34,%esp
 8048b99:	8d 44 24 18          	lea    0x18(%esp),%eax
 8048b9d:	89 44 24 04          	mov    %eax,0x4(%esp)
 8048ba1:	8b 44 24 40          	mov    0x40(%esp),%eax
 8048ba5:	89 04 24             	mov    %eax,(%esp)
 8048ba8:	e8 4d 07 00 00       	call   80492fa <read_six_numbers>
 8048bad:	83 7c 24 18 00       	cmpl   $0x0,0x18(%esp)
 8048bb2:	75 07                	jne    8048bbb <phase_2+0x27>
 8048bb4:	83 7c 24 1c 01       	cmpl   $0x1,0x1c(%esp)
 8048bb9:	74 1f                	je     8048bda <phase_2+0x46>
 8048bbb:	e8 07 06 00 00       	call   80491c7 <explode_bomb>
 8048bc0:	eb 18                	jmp    8048bda <phase_2+0x46>
 8048bc2:	8b 43 f8             	mov    -0x8(%ebx),%eax
 8048bc5:	03 43 fc             	add    -0x4(%ebx),%eax
 8048bc8:	39 03                	cmp    %eax,(%ebx)
 8048bca:	74 05                	je     8048bd1 <phase_2+0x3d>
 8048bcc:	e8 f6 05 00 00       	call   80491c7 <explode_bomb>
 8048bd1:	83 c3 04             	add    $0x4,%ebx
 8048bd4:	39 f3                	cmp    %esi,%ebx
 8048bd6:	75 ea                	jne    8048bc2 <phase_2+0x2e>
 8048bd8:	eb 0a                	jmp    8048be4 <phase_2+0x50>
 8048bda:	8d 5c 24 20          	lea    0x20(%esp),%ebx
 8048bde:	8d 74 24 30          	lea    0x30(%esp),%esi
 8048be2:	eb de                	jmp    8048bc2 <phase_2+0x2e>
 8048be4:	83 c4 34             	add    $0x34,%esp
 8048be7:	5b                   	pop    %ebx
 8048be8:	5e                   	pop    %esi
 8048be9:	c3                   	ret    

08048bea <phase_3>:
 8048bea:	83 ec 3c             	sub    $0x3c,%esp
 8048bed:	8d 44 24 28          	lea    0x28(%esp),%eax
 8048bf1:	89 44 24 10          	mov    %eax,0x10(%esp)
 8048bf5:	8d 44 24 27          	lea    0x27(%esp),%eax
 8048bf9:	89 44 24 0c          	mov    %eax,0xc(%esp)
 8048bfd:	8d 44 24 2c          	lea    0x2c(%esp),%eax
 8048c01:	89 44 24 08          	mov    %eax,0x8(%esp)
 8048c05:	c7 44 24 04 be a1 04 	movl   $0x804a1be,0x4(%esp)
 8048c0c:	08 
 8048c0d:	8b 44 24 40          	mov    0x40(%esp),%eax
 8048c11:	89 04 24             	mov    %eax,(%esp)
 8048c14:	e8 77 fc ff ff       	call   8048890 <__isoc99_sscanf@plt>
 8048c19:	83 f8 02             	cmp    $0x2,%eax
 8048c1c:	7f 05                	jg     8048c23 <phase_3+0x39>
 8048c1e:	e8 a4 05 00 00       	call   80491c7 <explode_bomb>
 8048c23:	83 7c 24 2c 07       	cmpl   $0x7,0x2c(%esp)
 8048c28:	0f 87 fc 00 00 00    	ja     8048d2a <phase_3+0x140>
 8048c2e:	8b 44 24 2c          	mov    0x2c(%esp),%eax
 8048c32:	ff 24 85 d0 a1 04 08 	jmp    *0x804a1d0(,%eax,4)
 8048c39:	b8 72 00 00 00       	mov    $0x72,%eax
 8048c3e:	81 7c 24 28 e4 02 00 	cmpl   $0x2e4,0x28(%esp)
 8048c45:	00 
 8048c46:	0f 84 e8 00 00 00    	je     8048d34 <phase_3+0x14a>
 8048c4c:	e8 76 05 00 00       	call   80491c7 <explode_bomb>
 8048c51:	b8 72 00 00 00       	mov    $0x72,%eax
 8048c56:	e9 d9 00 00 00       	jmp    8048d34 <phase_3+0x14a>
 8048c5b:	b8 79 00 00 00       	mov    $0x79,%eax
 8048c60:	81 7c 24 28 ea 01 00 	cmpl   $0x1ea,0x28(%esp)
 8048c67:	00 
 8048c68:	0f 84 c6 00 00 00    	je     8048d34 <phase_3+0x14a>
 8048c6e:	e8 54 05 00 00       	call   80491c7 <explode_bomb>
 8048c73:	b8 79 00 00 00       	mov    $0x79,%eax
 8048c78:	e9 b7 00 00 00       	jmp    8048d34 <phase_3+0x14a>
 8048c7d:	b8 69 00 00 00       	mov    $0x69,%eax
 8048c82:	81 7c 24 28 df 01 00 	cmpl   $0x1df,0x28(%esp)
 8048c89:	00 
 8048c8a:	0f 84 a4 00 00 00    	je     8048d34 <phase_3+0x14a>
 8048c90:	e8 32 05 00 00       	call   80491c7 <explode_bomb>
 8048c95:	b8 69 00 00 00       	mov    $0x69,%eax
 8048c9a:	e9 95 00 00 00       	jmp    8048d34 <phase_3+0x14a>
 8048c9f:	b8 7a 00 00 00       	mov    $0x7a,%eax
 8048ca4:	81 7c 24 28 4b 03 00 	cmpl   $0x34b,0x28(%esp)
 8048cab:	00 
 8048cac:	0f 84 82 00 00 00    	je     8048d34 <phase_3+0x14a>
 8048cb2:	e8 10 05 00 00       	call   80491c7 <explode_bomb>
 8048cb7:	b8 7a 00 00 00       	mov    $0x7a,%eax
 8048cbc:	eb 76                	jmp    8048d34 <phase_3+0x14a>
 8048cbe:	b8 7a 00 00 00       	mov    $0x7a,%eax
 8048cc3:	81 7c 24 28 f1 00 00 	cmpl   $0xf1,0x28(%esp)
 8048cca:	00 
 8048ccb:	74 67                	je     8048d34 <phase_3+0x14a>
 8048ccd:	e8 f5 04 00 00       	call   80491c7 <explode_bomb>
 8048cd2:	b8 7a 00 00 00       	mov    $0x7a,%eax
 8048cd7:	eb 5b                	jmp    8048d34 <phase_3+0x14a>
 8048cd9:	b8 79 00 00 00       	mov    $0x79,%eax
 8048cde:	81 7c 24 28 df 00 00 	cmpl   $0xdf,0x28(%esp)
 8048ce5:	00 
 8048ce6:	74 4c                	je     8048d34 <phase_3+0x14a>
 8048ce8:	e8 da 04 00 00       	call   80491c7 <explode_bomb>
 8048ced:	b8 79 00 00 00       	mov    $0x79,%eax
 8048cf2:	eb 40                	jmp    8048d34 <phase_3+0x14a>
 8048cf4:	b8 77 00 00 00       	mov    $0x77,%eax
 8048cf9:	81 7c 24 28 17 02 00 	cmpl   $0x217,0x28(%esp)
 8048d00:	00 
 8048d01:	74 31                	je     8048d34 <phase_3+0x14a>
 8048d03:	e8 bf 04 00 00       	call   80491c7 <explode_bomb>
 8048d08:	b8 77 00 00 00       	mov    $0x77,%eax
 8048d0d:	eb 25                	jmp    8048d34 <phase_3+0x14a>
 8048d0f:	b8 7a 00 00 00       	mov    $0x7a,%eax
 8048d14:	81 7c 24 28 d9 00 00 	cmpl   $0xd9,0x28(%esp)
 8048d1b:	00 
 8048d1c:	74 16                	je     8048d34 <phase_3+0x14a>
 8048d1e:	e8 a4 04 00 00       	call   80491c7 <explode_bomb>
 8048d23:	b8 7a 00 00 00       	mov    $0x7a,%eax
 8048d28:	eb 0a                	jmp    8048d34 <phase_3+0x14a>
 8048d2a:	e8 98 04 00 00       	call   80491c7 <explode_bomb>
 8048d2f:	b8 73 00 00 00       	mov    $0x73,%eax
 8048d34:	3a 44 24 27          	cmp    0x27(%esp),%al
 8048d38:	74 05                	je     8048d3f <phase_3+0x155>
 8048d3a:	e8 88 04 00 00       	call   80491c7 <explode_bomb>
 8048d3f:	83 c4 3c             	add    $0x3c,%esp
 8048d42:	c3                   	ret    

08048d43 <func4>:
 8048d43:	83 ec 1c             	sub    $0x1c,%esp
 8048d46:	89 5c 24 10          	mov    %ebx,0x10(%esp)
 8048d4a:	89 74 24 14          	mov    %esi,0x14(%esp)
 8048d4e:	89 7c 24 18          	mov    %edi,0x18(%esp)
 8048d52:	8b 74 24 20          	mov    0x20(%esp),%esi
 8048d56:	8b 5c 24 24          	mov    0x24(%esp),%ebx
 8048d5a:	85 f6                	test   %esi,%esi
 8048d5c:	7e 2b                	jle    8048d89 <func4+0x46>
 8048d5e:	83 fe 01             	cmp    $0x1,%esi
 8048d61:	74 2b                	je     8048d8e <func4+0x4b>
 8048d63:	89 5c 24 04          	mov    %ebx,0x4(%esp)
 8048d67:	8d 46 ff             	lea    -0x1(%esi),%eax
 8048d6a:	89 04 24             	mov    %eax,(%esp)
 8048d6d:	e8 d1 ff ff ff       	call   8048d43 <func4>
 8048d72:	8d 3c 18             	lea    (%eax,%ebx,1),%edi
 8048d75:	89 5c 24 04          	mov    %ebx,0x4(%esp)
 8048d79:	83 ee 02             	sub    $0x2,%esi
 8048d7c:	89 34 24             	mov    %esi,(%esp)
 8048d7f:	e8 bf ff ff ff       	call   8048d43 <func4>
 8048d84:	8d 1c 07             	lea    (%edi,%eax,1),%ebx
 8048d87:	eb 05                	jmp    8048d8e <func4+0x4b>
 8048d89:	bb 00 00 00 00       	mov    $0x0,%ebx
 8048d8e:	89 d8                	mov    %ebx,%eax
 8048d90:	8b 5c 24 10          	mov    0x10(%esp),%ebx
 8048d94:	8b 74 24 14          	mov    0x14(%esp),%esi
 8048d98:	8b 7c 24 18          	mov    0x18(%esp),%edi
 8048d9c:	83 c4 1c             	add    $0x1c,%esp
 8048d9f:	c3                   	ret    

08048da0 <phase_4>:
 8048da0:	83 ec 2c             	sub    $0x2c,%esp
 8048da3:	8d 44 24 1c          	lea    0x1c(%esp),%eax
 8048da7:	89 44 24 0c          	mov    %eax,0xc(%esp)
 8048dab:	8d 44 24 18          	lea    0x18(%esp),%eax
 8048daf:	89 44 24 08          	mov    %eax,0x8(%esp)
 8048db3:	c7 44 24 04 63 a3 04 	movl   $0x804a363,0x4(%esp)
 8048dba:	08 
 8048dbb:	8b 44 24 30          	mov    0x30(%esp),%eax
 8048dbf:	89 04 24             	mov    %eax,(%esp)
 8048dc2:	e8 c9 fa ff ff       	call   8048890 <__isoc99_sscanf@plt>
 8048dc7:	83 f8 02             	cmp    $0x2,%eax
 8048dca:	75 0e                	jne    8048dda <phase_4+0x3a>
 8048dcc:	8b 44 24 1c          	mov    0x1c(%esp),%eax
 8048dd0:	83 f8 01             	cmp    $0x1,%eax
 8048dd3:	7e 05                	jle    8048dda <phase_4+0x3a>
 8048dd5:	83 f8 04             	cmp    $0x4,%eax
 8048dd8:	7e 05                	jle    8048ddf <phase_4+0x3f>
 8048dda:	e8 e8 03 00 00       	call   80491c7 <explode_bomb>
 8048ddf:	8b 44 24 1c          	mov    0x1c(%esp),%eax
 8048de3:	89 44 24 04          	mov    %eax,0x4(%esp)
 8048de7:	c7 04 24 07 00 00 00 	movl   $0x7,(%esp)
 8048dee:	e8 50 ff ff ff       	call   8048d43 <func4>
 8048df3:	3b 44 24 18          	cmp    0x18(%esp),%eax
 8048df7:	74 05                	je     8048dfe <phase_4+0x5e>
 8048df9:	e8 c9 03 00 00       	call   80491c7 <explode_bomb>
 8048dfe:	83 c4 2c             	add    $0x2c,%esp
 8048e01:	c3                   	ret    

08048e02 <phase_5>:
 8048e02:	53                   	push   %ebx
 8048e03:	83 ec 28             	sub    $0x28,%esp
 8048e06:	8b 5c 24 30          	mov    0x30(%esp),%ebx
 8048e0a:	89 1c 24             	mov    %ebx,(%esp)
 8048e0d:	e8 89 02 00 00       	call   804909b <string_length>
 8048e12:	83 f8 06             	cmp    $0x6,%eax
 8048e15:	74 4b                	je     8048e62 <phase_5+0x60>
 8048e17:	e8 ab 03 00 00       	call   80491c7 <explode_bomb>
 8048e1c:	8d 74 26 00          	lea    0x0(%esi,%eiz,1),%esi
 8048e20:	eb 40                	jmp    8048e62 <phase_5+0x60>
 8048e22:	0f b6 14 03          	movzbl (%ebx,%eax,1),%edx
 8048e26:	83 e2 0f             	and    $0xf,%edx
 8048e29:	0f b6 92 f0 a1 04 08 	movzbl 0x804a1f0(%edx),%edx
 8048e30:	88 54 04 19          	mov    %dl,0x19(%esp,%eax,1)
 8048e34:	83 c0 01             	add    $0x1,%eax
 8048e37:	83 f8 06             	cmp    $0x6,%eax
 8048e3a:	75 e6                	jne    8048e22 <phase_5+0x20>
 8048e3c:	c6 44 24 1f 00       	movb   $0x0,0x1f(%esp)
 8048e41:	c7 44 24 04 c7 a1 04 	movl   $0x804a1c7,0x4(%esp)
 8048e48:	08 
 8048e49:	8d 44 24 19          	lea    0x19(%esp),%eax
 8048e4d:	89 04 24             	mov    %eax,(%esp)
 8048e50:	e8 65 02 00 00       	call   80490ba <strings_not_equal>
 8048e55:	85 c0                	test   %eax,%eax
 8048e57:	74 10                	je     8048e69 <phase_5+0x67>
 8048e59:	e8 69 03 00 00       	call   80491c7 <explode_bomb>
 8048e5e:	66 90                	xchg   %ax,%ax
 8048e60:	eb 07                	jmp    8048e69 <phase_5+0x67>
 8048e62:	b8 00 00 00 00       	mov    $0x0,%eax
 8048e67:	eb b9                	jmp    8048e22 <phase_5+0x20>
 8048e69:	83 c4 28             	add    $0x28,%esp
 8048e6c:	5b                   	pop    %ebx
 8048e6d:	c3                   	ret    

08048e6e <phase_6>:
 8048e6e:	57                   	push   %edi
 8048e6f:	56                   	push   %esi
 8048e70:	53                   	push   %ebx
 8048e71:	83 ec 40             	sub    $0x40,%esp
 8048e74:	8d 44 24 28          	lea    0x28(%esp),%eax
 8048e78:	89 44 24 04          	mov    %eax,0x4(%esp)
 8048e7c:	8b 44 24 50          	mov    0x50(%esp),%eax
 8048e80:	89 04 24             	mov    %eax,(%esp)
 8048e83:	e8 72 04 00 00       	call   80492fa <read_six_numbers>
 8048e88:	bf 00 00 00 00       	mov    $0x0,%edi
 8048e8d:	8b 44 bc 28          	mov    0x28(%esp,%edi,4),%eax
 8048e91:	83 e8 01             	sub    $0x1,%eax
 8048e94:	83 f8 05             	cmp    $0x5,%eax
 8048e97:	76 05                	jbe    8048e9e <phase_6+0x30>
 8048e99:	e8 29 03 00 00       	call   80491c7 <explode_bomb>
 8048e9e:	8d 77 01             	lea    0x1(%edi),%esi
 8048ea1:	83 fe 06             	cmp    $0x6,%esi
 8048ea4:	74 1d                	je     8048ec3 <phase_6+0x55>
 8048ea6:	89 f3                	mov    %esi,%ebx
 8048ea8:	8b 44 9c 28          	mov    0x28(%esp,%ebx,4),%eax
 8048eac:	39 44 b4 24          	cmp    %eax,0x24(%esp,%esi,4)
 8048eb0:	75 05                	jne    8048eb7 <phase_6+0x49>
 8048eb2:	e8 10 03 00 00       	call   80491c7 <explode_bomb>
 8048eb7:	83 c3 01             	add    $0x1,%ebx
 8048eba:	89 f7                	mov    %esi,%edi
 8048ebc:	83 fb 05             	cmp    $0x5,%ebx
 8048ebf:	7e e7                	jle    8048ea8 <phase_6+0x3a>
 8048ec1:	eb ca                	jmp    8048e8d <phase_6+0x1f>
 8048ec3:	8d 44 24 28          	lea    0x28(%esp),%eax
 8048ec7:	8d 5c 24 40          	lea    0x40(%esp),%ebx
 8048ecb:	b9 07 00 00 00       	mov    $0x7,%ecx
 8048ed0:	89 ca                	mov    %ecx,%edx
 8048ed2:	2b 10                	sub    (%eax),%edx
 8048ed4:	89 10                	mov    %edx,(%eax)
 8048ed6:	83 c0 04             	add    $0x4,%eax
 8048ed9:	39 d8                	cmp    %ebx,%eax
 8048edb:	75 f3                	jne    8048ed0 <phase_6+0x62>
 8048edd:	bb 00 00 00 00       	mov    $0x0,%ebx
 8048ee2:	eb 16                	jmp    8048efa <phase_6+0x8c>
 8048ee4:	8b 52 08             	mov    0x8(%edx),%edx
 8048ee7:	83 c0 01             	add    $0x1,%eax
 8048eea:	39 c8                	cmp    %ecx,%eax
 8048eec:	75 f6                	jne    8048ee4 <phase_6+0x76>
 8048eee:	89 54 b4 10          	mov    %edx,0x10(%esp,%esi,4)
 8048ef2:	83 c3 01             	add    $0x1,%ebx
 8048ef5:	83 fb 06             	cmp    $0x6,%ebx
 8048ef8:	74 17                	je     8048f11 <phase_6+0xa3>
 8048efa:	89 de                	mov    %ebx,%esi
 8048efc:	8b 4c 9c 28          	mov    0x28(%esp,%ebx,4),%ecx
 8048f00:	b8 01 00 00 00       	mov    $0x1,%eax
 8048f05:	ba 3c b2 04 08       	mov    $0x804b23c,%edx
 8048f0a:	83 f9 01             	cmp    $0x1,%ecx
 8048f0d:	7f d5                	jg     8048ee4 <phase_6+0x76>
 8048f0f:	eb dd                	jmp    8048eee <phase_6+0x80>
 8048f11:	8b 5c 24 10          	mov    0x10(%esp),%ebx
 8048f15:	8b 44 24 14          	mov    0x14(%esp),%eax
 8048f19:	89 43 08             	mov    %eax,0x8(%ebx)
 8048f1c:	8b 54 24 18          	mov    0x18(%esp),%edx
 8048f20:	89 50 08             	mov    %edx,0x8(%eax)
 8048f23:	8b 44 24 1c          	mov    0x1c(%esp),%eax
 8048f27:	89 42 08             	mov    %eax,0x8(%edx)
 8048f2a:	8b 54 24 20          	mov    0x20(%esp),%edx
 8048f2e:	89 50 08             	mov    %edx,0x8(%eax)
 8048f31:	8b 44 24 24          	mov    0x24(%esp),%eax
 8048f35:	89 42 08             	mov    %eax,0x8(%edx)
 8048f38:	c7 40 08 00 00 00 00 	movl   $0x0,0x8(%eax)
 8048f3f:	be 05 00 00 00       	mov    $0x5,%esi
 8048f44:	8b 43 08             	mov    0x8(%ebx),%eax
 8048f47:	8b 10                	mov    (%eax),%edx
 8048f49:	39 13                	cmp    %edx,(%ebx)
 8048f4b:	7d 05                	jge    8048f52 <phase_6+0xe4>
 8048f4d:	e8 75 02 00 00       	call   80491c7 <explode_bomb>
 8048f52:	8b 5b 08             	mov    0x8(%ebx),%ebx
 8048f55:	83 ee 01             	sub    $0x1,%esi
 8048f58:	75 ea                	jne    8048f44 <phase_6+0xd6>
 8048f5a:	83 c4 40             	add    $0x40,%esp
 8048f5d:	5b                   	pop    %ebx
 8048f5e:	5e                   	pop    %esi
 8048f5f:	5f                   	pop    %edi
 8048f60:	c3                   	ret    

08048f61 <fun7>:
 8048f61:	53                   	push   %ebx
 8048f62:	83 ec 18             	sub    $0x18,%esp
 8048f65:	8b 54 24 20          	mov    0x20(%esp),%edx
 8048f69:	8b 4c 24 24          	mov    0x24(%esp),%ecx
 8048f6d:	85 d2                	test   %edx,%edx
 8048f6f:	74 37                	je     8048fa8 <fun7+0x47>
 8048f71:	8b 1a                	mov    (%edx),%ebx
 8048f73:	39 cb                	cmp    %ecx,%ebx
 8048f75:	7e 13                	jle    8048f8a <fun7+0x29>
 8048f77:	89 4c 24 04          	mov    %ecx,0x4(%esp)
 8048f7b:	8b 42 04             	mov    0x4(%edx),%eax
 8048f7e:	89 04 24             	mov    %eax,(%esp)
 8048f81:	e8 db ff ff ff       	call   8048f61 <fun7>
 8048f86:	01 c0                	add    %eax,%eax
 8048f88:	eb 23                	jmp    8048fad <fun7+0x4c>
 8048f8a:	b8 00 00 00 00       	mov    $0x0,%eax
 8048f8f:	39 cb                	cmp    %ecx,%ebx
 8048f91:	74 1a                	je     8048fad <fun7+0x4c>
 8048f93:	89 4c 24 04          	mov    %ecx,0x4(%esp)
 8048f97:	8b 42 08             	mov    0x8(%edx),%eax
 8048f9a:	89 04 24             	mov    %eax,(%esp)
 8048f9d:	e8 bf ff ff ff       	call   8048f61 <fun7>
 8048fa2:	8d 44 00 01          	lea    0x1(%eax,%eax,1),%eax
 8048fa6:	eb 05                	jmp    8048fad <fun7+0x4c>
 8048fa8:	b8 ff ff ff ff       	mov    $0xffffffff,%eax
 8048fad:	83 c4 18             	add    $0x18,%esp
 8048fb0:	5b                   	pop    %ebx
 8048fb1:	c3                   	ret    

08048fb2 <secret_phase>:
 8048fb2:	53                   	push   %ebx
 8048fb3:	83 ec 18             	sub    $0x18,%esp
 8048fb6:	e8 33 02 00 00       	call   80491ee <read_line>
 8048fbb:	c7 44 24 08 0a 00 00 	movl   $0xa,0x8(%esp)
 8048fc2:	00 
 8048fc3:	c7 44 24 04 00 00 00 	movl   $0x0,0x4(%esp)
 8048fca:	00 
 8048fcb:	89 04 24             	mov    %eax,(%esp)
 8048fce:	e8 1d f9 ff ff       	call   80488f0 <strtol@plt>
 8048fd3:	89 c3                	mov    %eax,%ebx
 8048fd5:	8d 40 ff             	lea    -0x1(%eax),%eax
 8048fd8:	3d e8 03 00 00       	cmp    $0x3e8,%eax
 8048fdd:	76 05                	jbe    8048fe4 <secret_phase+0x32>
 8048fdf:	e8 e3 01 00 00       	call   80491c7 <explode_bomb>
 8048fe4:	89 5c 24 04          	mov    %ebx,0x4(%esp)
 8048fe8:	c7 04 24 88 b1 04 08 	movl   $0x804b188,(%esp)
 8048fef:	e8 6d ff ff ff       	call   8048f61 <fun7>
 8048ff4:	83 f8 03             	cmp    $0x3,%eax
 8048ff7:	74 05                	je     8048ffe <secret_phase+0x4c>
 8048ff9:	e8 c9 01 00 00       	call   80491c7 <explode_bomb>
 8048ffe:	c7 04 24 98 a1 04 08 	movl   $0x804a198,(%esp)
 8049005:	e8 26 f8 ff ff       	call   8048830 <puts@plt>
 804900a:	e8 3b 03 00 00       	call   804934a <phase_defused>
 804900f:	83 c4 18             	add    $0x18,%esp
 8049012:	5b                   	pop    %ebx
 8049013:	c3                   	ret    
 8049014:	90                   	nop
 8049015:	90                   	nop
 8049016:	90                   	nop
 8049017:	90                   	nop
 8049018:	90                   	nop
 8049019:	90                   	nop
 804901a:	90                   	nop
 804901b:	90                   	nop
 804901c:	90                   	nop
 804901d:	90                   	nop
 804901e:	90                   	nop
 804901f:	90                   	nop

08049020 <sig_handler>:
 8049020:	83 ec 1c             	sub    $0x1c,%esp
 8049023:	c7 04 24 00 a2 04 08 	movl   $0x804a200,(%esp)
 804902a:	e8 01 f8 ff ff       	call   8048830 <puts@plt>
 804902f:	c7 04 24 03 00 00 00 	movl   $0x3,(%esp)
 8049036:	e8 a5 f7 ff ff       	call   80487e0 <sleep@plt>
 804903b:	c7 04 24 c2 a2 04 08 	movl   $0x804a2c2,(%esp)
 8049042:	e8 49 f7 ff ff       	call   8048790 <printf@plt>
 8049047:	a1 c0 b4 04 08       	mov    0x804b4c0,%eax
 804904c:	89 04 24             	mov    %eax,(%esp)
 804904f:	e8 4c f7 ff ff       	call   80487a0 <fflush@plt>
 8049054:	c7 04 24 01 00 00 00 	movl   $0x1,(%esp)
 804905b:	e8 80 f7 ff ff       	call   80487e0 <sleep@plt>
 8049060:	c7 04 24 ca a2 04 08 	movl   $0x804a2ca,(%esp)
 8049067:	e8 c4 f7 ff ff       	call   8048830 <puts@plt>
 804906c:	c7 04 24 10 00 00 00 	movl   $0x10,(%esp)
 8049073:	e8 d8 f7 ff ff       	call   8048850 <exit@plt>

08049078 <invalid_phase>:
 8049078:	83 ec 1c             	sub    $0x1c,%esp
 804907b:	8b 44 24 20          	mov    0x20(%esp),%eax
 804907f:	89 44 24 04          	mov    %eax,0x4(%esp)
 8049083:	c7 04 24 d2 a2 04 08 	movl   $0x804a2d2,(%esp)
 804908a:	e8 01 f7 ff ff       	call   8048790 <printf@plt>
 804908f:	c7 04 24 08 00 00 00 	movl   $0x8,(%esp)
 8049096:	e8 b5 f7 ff ff       	call   8048850 <exit@plt>

0804909b <string_length>:
 804909b:	8b 54 24 04          	mov    0x4(%esp),%edx
 804909f:	80 3a 00             	cmpb   $0x0,(%edx)
 80490a2:	74 10                	je     80490b4 <string_length+0x19>
 80490a4:	b8 00 00 00 00       	mov    $0x0,%eax
 80490a9:	83 c0 01             	add    $0x1,%eax
 80490ac:	80 3c 02 00          	cmpb   $0x0,(%edx,%eax,1)
 80490b0:	75 f7                	jne    80490a9 <string_length+0xe>
 80490b2:	f3 c3                	repz ret 
 80490b4:	b8 00 00 00 00       	mov    $0x0,%eax
 80490b9:	c3                   	ret    

080490ba <strings_not_equal>:
 80490ba:	57                   	push   %edi
 80490bb:	56                   	push   %esi
 80490bc:	53                   	push   %ebx
 80490bd:	83 ec 04             	sub    $0x4,%esp
 80490c0:	8b 5c 24 14          	mov    0x14(%esp),%ebx
 80490c4:	8b 74 24 18          	mov    0x18(%esp),%esi
 80490c8:	89 1c 24             	mov    %ebx,(%esp)
 80490cb:	e8 cb ff ff ff       	call   804909b <string_length>
 80490d0:	89 c7                	mov    %eax,%edi
 80490d2:	89 34 24             	mov    %esi,(%esp)
 80490d5:	e8 c1 ff ff ff       	call   804909b <string_length>
 80490da:	ba 01 00 00 00       	mov    $0x1,%edx
 80490df:	39 c7                	cmp    %eax,%edi
 80490e1:	75 3c                	jne    804911f <strings_not_equal+0x65>
 80490e3:	0f b6 03             	movzbl (%ebx),%eax
 80490e6:	84 c0                	test   %al,%al
 80490e8:	74 22                	je     804910c <strings_not_equal+0x52>
 80490ea:	3a 06                	cmp    (%esi),%al
 80490ec:	75 25                	jne    8049113 <strings_not_equal+0x59>
 80490ee:	89 f2                	mov    %esi,%edx
 80490f0:	89 d8                	mov    %ebx,%eax
 80490f2:	eb 04                	jmp    80490f8 <strings_not_equal+0x3e>
 80490f4:	3a 0a                	cmp    (%edx),%cl
 80490f6:	75 22                	jne    804911a <strings_not_equal+0x60>
 80490f8:	83 c0 01             	add    $0x1,%eax
 80490fb:	83 c2 01             	add    $0x1,%edx
 80490fe:	0f b6 08             	movzbl (%eax),%ecx
 8049101:	84 c9                	test   %cl,%cl
 8049103:	75 ef                	jne    80490f4 <strings_not_equal+0x3a>
 8049105:	ba 00 00 00 00       	mov    $0x0,%edx
 804910a:	eb 13                	jmp    804911f <strings_not_equal+0x65>
 804910c:	ba 00 00 00 00       	mov    $0x0,%edx
 8049111:	eb 0c                	jmp    804911f <strings_not_equal+0x65>
 8049113:	ba 01 00 00 00       	mov    $0x1,%edx
 8049118:	eb 05                	jmp    804911f <strings_not_equal+0x65>
 804911a:	ba 01 00 00 00       	mov    $0x1,%edx
 804911f:	89 d0                	mov    %edx,%eax
 8049121:	83 c4 04             	add    $0x4,%esp
 8049124:	5b                   	pop    %ebx
 8049125:	5e                   	pop    %esi
 8049126:	5f                   	pop    %edi
 8049127:	c3                   	ret    

08049128 <initialize_bomb>:
 8049128:	83 ec 1c             	sub    $0x1c,%esp
 804912b:	c7 44 24 04 20 90 04 	movl   $0x8049020,0x4(%esp)
 8049132:	08 
 8049133:	c7 04 24 02 00 00 00 	movl   $0x2,(%esp)
 804913a:	e8 91 f6 ff ff       	call   80487d0 <signal@plt>
 804913f:	83 c4 1c             	add    $0x1c,%esp
 8049142:	c3                   	ret    

08049143 <initialize_bomb_solve>:
 8049143:	f3 c3                	repz ret 

08049145 <blank_line>:
 8049145:	56                   	push   %esi
 8049146:	53                   	push   %ebx
 8049147:	83 ec 04             	sub    $0x4,%esp
 804914a:	8b 5c 24 10          	mov    0x10(%esp),%ebx
 804914e:	eb 16                	jmp    8049166 <blank_line+0x21>
 8049150:	e8 cb f7 ff ff       	call   8048920 <__ctype_b_loc@plt>
 8049155:	83 c3 01             	add    $0x1,%ebx
 8049158:	89 f2                	mov    %esi,%edx
 804915a:	0f be f2             	movsbl %dl,%esi
 804915d:	8b 00                	mov    (%eax),%eax
 804915f:	f6 44 70 01 20       	testb  $0x20,0x1(%eax,%esi,2)
 8049164:	74 10                	je     8049176 <blank_line+0x31>
 8049166:	0f b6 33             	movzbl (%ebx),%esi
 8049169:	89 f0                	mov    %esi,%eax
 804916b:	84 c0                	test   %al,%al
 804916d:	75 e1                	jne    8049150 <blank_line+0xb>
 804916f:	b8 01 00 00 00       	mov    $0x1,%eax
 8049174:	eb 05                	jmp    804917b <blank_line+0x36>
 8049176:	b8 00 00 00 00       	mov    $0x0,%eax
 804917b:	83 c4 04             	add    $0x4,%esp
 804917e:	5b                   	pop    %ebx
 804917f:	5e                   	pop    %esi
 8049180:	c3                   	ret    

08049181 <skip>:
 8049181:	53                   	push   %ebx
 8049182:	83 ec 18             	sub    $0x18,%esp
 8049185:	a1 cc b4 04 08       	mov    0x804b4cc,%eax
 804918a:	89 44 24 08          	mov    %eax,0x8(%esp)
 804918e:	c7 44 24 04 50 00 00 	movl   $0x50,0x4(%esp)
 8049195:	00 
 8049196:	a1 c8 b4 04 08       	mov    0x804b4c8,%eax
 804919b:	8d 04 80             	lea    (%eax,%eax,4),%eax
 804919e:	c1 e0 04             	shl    $0x4,%eax
 80491a1:	05 e0 b4 04 08       	add    $0x804b4e0,%eax
 80491a6:	89 04 24             	mov    %eax,(%esp)
 80491a9:	e8 12 f6 ff ff       	call   80487c0 <fgets@plt>
 80491ae:	89 c3                	mov    %eax,%ebx
 80491b0:	85 c0                	test   %eax,%eax
 80491b2:	74 0c                	je     80491c0 <skip+0x3f>
 80491b4:	89 04 24             	mov    %eax,(%esp)
 80491b7:	e8 89 ff ff ff       	call   8049145 <blank_line>
 80491bc:	85 c0                	test   %eax,%eax
 80491be:	75 c5                	jne    8049185 <skip+0x4>
 80491c0:	89 d8                	mov    %ebx,%eax
 80491c2:	83 c4 18             	add    $0x18,%esp
 80491c5:	5b                   	pop    %ebx
 80491c6:	c3                   	ret    

080491c7 <explode_bomb>:
 80491c7:	83 ec 1c             	sub    $0x1c,%esp
 80491ca:	c7 04 24 e3 a2 04 08 	movl   $0x804a2e3,(%esp)
 80491d1:	e8 5a f6 ff ff       	call   8048830 <puts@plt>
 80491d6:	c7 04 24 ec a2 04 08 	movl   $0x804a2ec,(%esp)
 80491dd:	e8 4e f6 ff ff       	call   8048830 <puts@plt>
 80491e2:	c7 04 24 08 00 00 00 	movl   $0x8,(%esp)
 80491e9:	e8 62 f6 ff ff       	call   8048850 <exit@plt>

080491ee <read_line>:
 80491ee:	83 ec 1c             	sub    $0x1c,%esp
 80491f1:	89 5c 24 10          	mov    %ebx,0x10(%esp)
 80491f5:	89 74 24 14          	mov    %esi,0x14(%esp)
 80491f9:	89 7c 24 18          	mov    %edi,0x18(%esp)
 80491fd:	e8 7f ff ff ff       	call   8049181 <skip>
 8049202:	85 c0                	test   %eax,%eax
 8049204:	75 6c                	jne    8049272 <read_line+0x84>
 8049206:	a1 a4 b4 04 08       	mov    0x804b4a4,%eax
 804920b:	39 05 cc b4 04 08    	cmp    %eax,0x804b4cc
 8049211:	75 18                	jne    804922b <read_line+0x3d>
 8049213:	c7 04 24 03 a3 04 08 	movl   $0x804a303,(%esp)
 804921a:	e8 11 f6 ff ff       	call   8048830 <puts@plt>
 804921f:	c7 04 24 08 00 00 00 	movl   $0x8,(%esp)
 8049226:	e8 25 f6 ff ff       	call   8048850 <exit@plt>
 804922b:	c7 04 24 21 a3 04 08 	movl   $0x804a321,(%esp)
 8049232:	e8 e9 f5 ff ff       	call   8048820 <getenv@plt>
 8049237:	85 c0                	test   %eax,%eax
 8049239:	74 0c                	je     8049247 <read_line+0x59>
 804923b:	c7 04 24 00 00 00 00 	movl   $0x0,(%esp)
 8049242:	e8 09 f6 ff ff       	call   8048850 <exit@plt>
 8049247:	a1 a4 b4 04 08       	mov    0x804b4a4,%eax
 804924c:	a3 cc b4 04 08       	mov    %eax,0x804b4cc
 8049251:	e8 2b ff ff ff       	call   8049181 <skip>
 8049256:	85 c0                	test   %eax,%eax
 8049258:	75 18                	jne    8049272 <read_line+0x84>
 804925a:	c7 04 24 03 a3 04 08 	movl   $0x804a303,(%esp)
 8049261:	e8 ca f5 ff ff       	call   8048830 <puts@plt>
 8049266:	c7 04 24 00 00 00 00 	movl   $0x0,(%esp)
 804926d:	e8 de f5 ff ff       	call   8048850 <exit@plt>
 8049272:	8b 15 c8 b4 04 08    	mov    0x804b4c8,%edx
 8049278:	8d 1c 92             	lea    (%edx,%edx,4),%ebx
 804927b:	c1 e3 04             	shl    $0x4,%ebx
 804927e:	81 c3 e0 b4 04 08    	add    $0x804b4e0,%ebx
 8049284:	89 df                	mov    %ebx,%edi
 8049286:	b8 00 00 00 00       	mov    $0x0,%eax
 804928b:	b9 ff ff ff ff       	mov    $0xffffffff,%ecx
 8049290:	f2 ae                	repnz scas %es:(%edi),%al
 8049292:	f7 d1                	not    %ecx
 8049294:	83 e9 01             	sub    $0x1,%ecx
 8049297:	83 f9 4e             	cmp    $0x4e,%ecx
 804929a:	7e 35                	jle    80492d1 <read_line+0xe3>
 804929c:	c7 04 24 2c a3 04 08 	movl   $0x804a32c,(%esp)
 80492a3:	e8 88 f5 ff ff       	call   8048830 <puts@plt>
 80492a8:	a1 c8 b4 04 08       	mov    0x804b4c8,%eax
 80492ad:	8d 50 01             	lea    0x1(%eax),%edx
 80492b0:	89 15 c8 b4 04 08    	mov    %edx,0x804b4c8
 80492b6:	6b c0 50             	imul   $0x50,%eax,%eax
 80492b9:	05 e0 b4 04 08       	add    $0x804b4e0,%eax
 80492be:	be 47 a3 04 08       	mov    $0x804a347,%esi
 80492c3:	b9 04 00 00 00       	mov    $0x4,%ecx
 80492c8:	89 c7                	mov    %eax,%edi
 80492ca:	f3 a5                	rep movsl %ds:(%esi),%es:(%edi)
 80492cc:	e8 f6 fe ff ff       	call   80491c7 <explode_bomb>
 80492d1:	8d 04 92             	lea    (%edx,%edx,4),%eax
 80492d4:	c1 e0 04             	shl    $0x4,%eax
 80492d7:	c6 84 01 df b4 04 08 	movb   $0x0,0x804b4df(%ecx,%eax,1)
 80492de:	00 
 80492df:	83 c2 01             	add    $0x1,%edx
 80492e2:	89 15 c8 b4 04 08    	mov    %edx,0x804b4c8
 80492e8:	89 d8                	mov    %ebx,%eax
 80492ea:	8b 5c 24 10          	mov    0x10(%esp),%ebx
 80492ee:	8b 74 24 14          	mov    0x14(%esp),%esi
 80492f2:	8b 7c 24 18          	mov    0x18(%esp),%edi
 80492f6:	83 c4 1c             	add    $0x1c,%esp
 80492f9:	c3                   	ret    

080492fa <read_six_numbers>:
 80492fa:	83 ec 2c             	sub    $0x2c,%esp
 80492fd:	8b 44 24 34          	mov    0x34(%esp),%eax
 8049301:	8d 50 14             	lea    0x14(%eax),%edx
 8049304:	89 54 24 1c          	mov    %edx,0x1c(%esp)
 8049308:	8d 50 10             	lea    0x10(%eax),%edx
 804930b:	89 54 24 18          	mov    %edx,0x18(%esp)
 804930f:	8d 50 0c             	lea    0xc(%eax),%edx
 8049312:	89 54 24 14          	mov    %edx,0x14(%esp)
 8049316:	8d 50 08             	lea    0x8(%eax),%edx
 8049319:	89 54 24 10          	mov    %edx,0x10(%esp)
 804931d:	8d 50 04             	lea    0x4(%eax),%edx
 8049320:	89 54 24 0c          	mov    %edx,0xc(%esp)
 8049324:	89 44 24 08          	mov    %eax,0x8(%esp)
 8049328:	c7 44 24 04 57 a3 04 	movl   $0x804a357,0x4(%esp)
 804932f:	08 
 8049330:	8b 44 24 30          	mov    0x30(%esp),%eax
 8049334:	89 04 24             	mov    %eax,(%esp)
 8049337:	e8 54 f5 ff ff       	call   8048890 <__isoc99_sscanf@plt>
 804933c:	83 f8 05             	cmp    $0x5,%eax
 804933f:	7f 05                	jg     8049346 <read_six_numbers+0x4c>
 8049341:	e8 81 fe ff ff       	call   80491c7 <explode_bomb>
 8049346:	83 c4 2c             	add    $0x2c,%esp
 8049349:	c3                   	ret    

0804934a <phase_defused>:
 804934a:	83 3d c8 b4 04 08 06 	cmpl   $0x6,0x804b4c8
 8049351:	75 7e                	jne    80493d1 <phase_defused+0x87>
 8049353:	81 ec 8c 00 00 00    	sub    $0x8c,%esp
 8049359:	8d 44 24 30          	lea    0x30(%esp),%eax
 804935d:	89 44 24 10          	mov    %eax,0x10(%esp)
 8049361:	8d 44 24 28          	lea    0x28(%esp),%eax
 8049365:	89 44 24 0c          	mov    %eax,0xc(%esp)
 8049369:	8d 44 24 2c          	lea    0x2c(%esp),%eax
 804936d:	89 44 24 08          	mov    %eax,0x8(%esp)
 8049371:	c7 44 24 04 69 a3 04 	movl   $0x804a369,0x4(%esp)
 8049378:	08 
 8049379:	c7 04 24 d0 b5 04 08 	movl   $0x804b5d0,(%esp)
 8049380:	e8 0b f5 ff ff       	call   8048890 <__isoc99_sscanf@plt>
 8049385:	83 f8 03             	cmp    $0x3,%eax
 8049388:	75 35                	jne    80493bf <phase_defused+0x75>
 804938a:	c7 44 24 04 72 a3 04 	movl   $0x804a372,0x4(%esp)
 8049391:	08 
 8049392:	8d 44 24 30          	lea    0x30(%esp),%eax
 8049396:	89 04 24             	mov    %eax,(%esp)
 8049399:	e8 1c fd ff ff       	call   80490ba <strings_not_equal>
 804939e:	85 c0                	test   %eax,%eax
 80493a0:	75 1d                	jne    80493bf <phase_defused+0x75>
 80493a2:	c7 04 24 38 a2 04 08 	movl   $0x804a238,(%esp)
 80493a9:	e8 82 f4 ff ff       	call   8048830 <puts@plt>
 80493ae:	c7 04 24 60 a2 04 08 	movl   $0x804a260,(%esp)
 80493b5:	e8 76 f4 ff ff       	call   8048830 <puts@plt>
 80493ba:	e8 f3 fb ff ff       	call   8048fb2 <secret_phase>
 80493bf:	c7 04 24 98 a2 04 08 	movl   $0x804a298,(%esp)
 80493c6:	e8 65 f4 ff ff       	call   8048830 <puts@plt>
 80493cb:	81 c4 8c 00 00 00    	add    $0x8c,%esp
 80493d1:	f3 c3                	repz ret 
 80493d3:	90                   	nop
 80493d4:	90                   	nop
 80493d5:	90                   	nop
 80493d6:	90                   	nop
 80493d7:	90                   	nop
 80493d8:	90                   	nop
 80493d9:	90                   	nop
 80493da:	90                   	nop
 80493db:	90                   	nop
 80493dc:	90                   	nop
 80493dd:	90                   	nop
 80493de:	90                   	nop
 80493df:	90                   	nop

080493e0 <rio_readlineb>:
 80493e0:	55                   	push   %ebp
 80493e1:	57                   	push   %edi
 80493e2:	56                   	push   %esi
 80493e3:	53                   	push   %ebx
 80493e4:	83 ec 3c             	sub    $0x3c,%esp
 80493e7:	83 f9 01             	cmp    $0x1,%ecx
 80493ea:	0f 86 cd 00 00 00    	jbe    80494bd <rio_readlineb+0xdd>
 80493f0:	89 c3                	mov    %eax,%ebx
 80493f2:	89 4c 24 1c          	mov    %ecx,0x1c(%esp)
 80493f6:	89 54 24 10          	mov    %edx,0x10(%esp)
 80493fa:	bd 01 00 00 00       	mov    $0x1,%ebp
 80493ff:	8d 78 0c             	lea    0xc(%eax),%edi
 8049402:	eb 38                	jmp    804943c <rio_readlineb+0x5c>
 8049404:	c7 44 24 08 00 20 00 	movl   $0x2000,0x8(%esp)
 804940b:	00 
 804940c:	89 7c 24 04          	mov    %edi,0x4(%esp)
 8049410:	8b 03                	mov    (%ebx),%eax
 8049412:	89 04 24             	mov    %eax,(%esp)
 8049415:	e8 66 f3 ff ff       	call   8048780 <read@plt>
 804941a:	89 43 04             	mov    %eax,0x4(%ebx)
 804941d:	85 c0                	test   %eax,%eax
 804941f:	79 14                	jns    8049435 <rio_readlineb+0x55>
 8049421:	e8 8a f4 ff ff       	call   80488b0 <__errno_location@plt>
 8049426:	83 38 04             	cmpl   $0x4,(%eax)
 8049429:	74 11                	je     804943c <rio_readlineb+0x5c>
 804942b:	90                   	nop
 804942c:	8d 74 26 00          	lea    0x0(%esi,%eiz,1),%esi
 8049430:	e9 9a 00 00 00       	jmp    80494cf <rio_readlineb+0xef>
 8049435:	85 c0                	test   %eax,%eax
 8049437:	74 6d                	je     80494a6 <rio_readlineb+0xc6>
 8049439:	89 7b 08             	mov    %edi,0x8(%ebx)
 804943c:	8b 73 04             	mov    0x4(%ebx),%esi
 804943f:	85 f6                	test   %esi,%esi
 8049441:	7e c1                	jle    8049404 <rio_readlineb+0x24>
 8049443:	85 f6                	test   %esi,%esi
 8049445:	0f 95 c0             	setne  %al
 8049448:	0f b6 c0             	movzbl %al,%eax
 804944b:	89 44 24 14          	mov    %eax,0x14(%esp)
 804944f:	8b 53 08             	mov    0x8(%ebx),%edx
 8049452:	89 54 24 18          	mov    %edx,0x18(%esp)
 8049456:	89 44 24 08          	mov    %eax,0x8(%esp)
 804945a:	89 54 24 04          	mov    %edx,0x4(%esp)
 804945e:	8d 44 24 2f          	lea    0x2f(%esp),%eax
 8049462:	89 04 24             	mov    %eax,(%esp)
 8049465:	e8 46 f3 ff ff       	call   80487b0 <memcpy@plt>
 804946a:	8b 44 24 18          	mov    0x18(%esp),%eax
 804946e:	03 44 24 14          	add    0x14(%esp),%eax
 8049472:	89 43 08             	mov    %eax,0x8(%ebx)
 8049475:	2b 74 24 14          	sub    0x14(%esp),%esi
 8049479:	89 73 04             	mov    %esi,0x4(%ebx)
 804947c:	83 7c 24 14 01       	cmpl   $0x1,0x14(%esp)
 8049481:	75 18                	jne    804949b <rio_readlineb+0xbb>
 8049483:	0f b6 44 24 2f       	movzbl 0x2f(%esp),%eax
 8049488:	8b 54 24 10          	mov    0x10(%esp),%edx
 804948c:	88 02                	mov    %al,(%edx)
 804948e:	83 c2 01             	add    $0x1,%edx
 8049491:	89 54 24 10          	mov    %edx,0x10(%esp)
 8049495:	3c 0a                	cmp    $0xa,%al
 8049497:	75 19                	jne    80494b2 <rio_readlineb+0xd2>
 8049499:	eb 2b                	jmp    80494c6 <rio_readlineb+0xe6>
 804949b:	83 7c 24 14 00       	cmpl   $0x0,0x14(%esp)
 80494a0:	75 34                	jne    80494d6 <rio_readlineb+0xf6>
 80494a2:	89 e8                	mov    %ebp,%eax
 80494a4:	eb 02                	jmp    80494a8 <rio_readlineb+0xc8>
 80494a6:	89 e8                	mov    %ebp,%eax
 80494a8:	83 f8 01             	cmp    $0x1,%eax
 80494ab:	75 19                	jne    80494c6 <rio_readlineb+0xe6>
 80494ad:	8d 76 00             	lea    0x0(%esi),%esi
 80494b0:	eb 2b                	jmp    80494dd <rio_readlineb+0xfd>
 80494b2:	83 c5 01             	add    $0x1,%ebp
 80494b5:	3b 6c 24 1c          	cmp    0x1c(%esp),%ebp
 80494b9:	75 81                	jne    804943c <rio_readlineb+0x5c>
 80494bb:	eb 09                	jmp    80494c6 <rio_readlineb+0xe6>
 80494bd:	89 54 24 10          	mov    %edx,0x10(%esp)
 80494c1:	bd 01 00 00 00       	mov    $0x1,%ebp
 80494c6:	8b 44 24 10          	mov    0x10(%esp),%eax
 80494ca:	c6 00 00             	movb   $0x0,(%eax)
 80494cd:	eb 13                	jmp    80494e2 <rio_readlineb+0x102>
 80494cf:	bd ff ff ff ff       	mov    $0xffffffff,%ebp
 80494d4:	eb 0c                	jmp    80494e2 <rio_readlineb+0x102>
 80494d6:	bd ff ff ff ff       	mov    $0xffffffff,%ebp
 80494db:	eb 05                	jmp    80494e2 <rio_readlineb+0x102>
 80494dd:	bd 00 00 00 00       	mov    $0x0,%ebp
 80494e2:	89 e8                	mov    %ebp,%eax
 80494e4:	83 c4 3c             	add    $0x3c,%esp
 80494e7:	5b                   	pop    %ebx
 80494e8:	5e                   	pop    %esi
 80494e9:	5f                   	pop    %edi
 80494ea:	5d                   	pop    %ebp
 80494eb:	c3                   	ret    

080494ec <sigalrm_handler>:
 80494ec:	83 ec 1c             	sub    $0x1c,%esp
 80494ef:	c7 44 24 08 00 00 00 	movl   $0x0,0x8(%esp)
 80494f6:	00 
 80494f7:	c7 44 24 04 d8 a3 04 	movl   $0x804a3d8,0x4(%esp)
 80494fe:	08 
 80494ff:	a1 a0 b4 04 08       	mov    0x804b4a0,%eax
 8049504:	89 04 24             	mov    %eax,(%esp)
 8049507:	e8 64 f3 ff ff       	call   8048870 <fprintf@plt>
 804950c:	c7 04 24 01 00 00 00 	movl   $0x1,(%esp)
 8049513:	e8 38 f3 ff ff       	call   8048850 <exit@plt>

08049518 <submitr>:
 8049518:	55                   	push   %ebp
 8049519:	57                   	push   %edi
 804951a:	56                   	push   %esi
 804951b:	53                   	push   %ebx
 804951c:	81 ec 6c a0 00 00    	sub    $0xa06c,%esp
 8049522:	8b 9c 24 94 a0 00 00 	mov    0xa094(%esp),%ebx
 8049529:	c7 84 24 40 20 00 00 	movl   $0x0,0x2040(%esp)
 8049530:	00 00 00 00 
 8049534:	c7 44 24 08 00 00 00 	movl   $0x0,0x8(%esp)
 804953b:	00 
 804953c:	c7 44 24 04 01 00 00 	movl   $0x1,0x4(%esp)
 8049543:	00 
 8049544:	c7 04 24 02 00 00 00 	movl   $0x2,(%esp)
 804954b:	e8 80 f3 ff ff       	call   80488d0 <socket@plt>
 8049550:	89 c5                	mov    %eax,%ebp
 8049552:	85 c0                	test   %eax,%eax
 8049554:	79 55                	jns    80495ab <submitr+0x93>
 8049556:	8b 84 24 98 a0 00 00 	mov    0xa098(%esp),%eax
 804955d:	c7 00 45 72 72 6f    	movl   $0x6f727245,(%eax)
 8049563:	c7 40 04 72 3a 20 43 	movl   $0x43203a72,0x4(%eax)
 804956a:	c7 40 08 6c 69 65 6e 	movl   $0x6e65696c,0x8(%eax)
 8049571:	c7 40 0c 74 20 75 6e 	movl   $0x6e752074,0xc(%eax)
 8049578:	c7 40 10 61 62 6c 65 	movl   $0x656c6261,0x10(%eax)
 804957f:	c7 40 14 20 74 6f 20 	movl   $0x206f7420,0x14(%eax)
 8049586:	c7 40 18 63 72 65 61 	movl   $0x61657263,0x18(%eax)
 804958d:	c7 40 1c 74 65 20 73 	movl   $0x73206574,0x1c(%eax)
 8049594:	c7 40 20 6f 63 6b 65 	movl   $0x656b636f,0x20(%eax)
 804959b:	66 c7 40 24 74 00    	movw   $0x74,0x24(%eax)
 80495a1:	b8 ff ff ff ff       	mov    $0xffffffff,%eax
 80495a6:	e9 47 07 00 00       	jmp    8049cf2 <submitr+0x7da>
 80495ab:	8b 84 24 80 a0 00 00 	mov    0xa080(%esp),%eax
 80495b2:	89 04 24             	mov    %eax,(%esp)
 80495b5:	e8 26 f3 ff ff       	call   80488e0 <gethostbyname@plt>
 80495ba:	85 c0                	test   %eax,%eax
 80495bc:	75 6f                	jne    804962d <submitr+0x115>
 80495be:	8b 94 24 98 a0 00 00 	mov    0xa098(%esp),%edx
 80495c5:	c7 02 45 72 72 6f    	movl   $0x6f727245,(%edx)
 80495cb:	c7 42 04 72 3a 20 44 	movl   $0x44203a72,0x4(%edx)
 80495d2:	c7 42 08 4e 53 20 69 	movl   $0x6920534e,0x8(%edx)
 80495d9:	c7 42 0c 73 20 75 6e 	movl   $0x6e752073,0xc(%edx)
 80495e0:	c7 42 10 61 62 6c 65 	movl   $0x656c6261,0x10(%edx)
 80495e7:	c7 42 14 20 74 6f 20 	movl   $0x206f7420,0x14(%edx)
 80495ee:	c7 42 18 72 65 73 6f 	movl   $0x6f736572,0x18(%edx)
 80495f5:	c7 42 1c 6c 76 65 20 	movl   $0x2065766c,0x1c(%edx)
 80495fc:	c7 42 20 73 65 72 76 	movl   $0x76726573,0x20(%edx)
 8049603:	c7 42 24 65 72 20 61 	movl   $0x61207265,0x24(%edx)
 804960a:	c7 42 28 64 64 72 65 	movl   $0x65726464,0x28(%edx)
 8049611:	66 c7 42 2c 73 73    	movw   $0x7373,0x2c(%edx)
 8049617:	c6 42 2e 00          	movb   $0x0,0x2e(%edx)
 804961b:	89 2c 24             	mov    %ebp,(%esp)
 804961e:	e8 ed f2 ff ff       	call   8048910 <close@plt>
 8049623:	b8 ff ff ff ff       	mov    $0xffffffff,%eax
 8049628:	e9 c5 06 00 00       	jmp    8049cf2 <submitr+0x7da>
 804962d:	8d b4 24 50 a0 00 00 	lea    0xa050(%esp),%esi
 8049634:	c7 84 24 50 a0 00 00 	movl   $0x0,0xa050(%esp)
 804963b:	00 00 00 00 
 804963f:	c7 84 24 54 a0 00 00 	movl   $0x0,0xa054(%esp)
 8049646:	00 00 00 00 
 804964a:	c7 84 24 58 a0 00 00 	movl   $0x0,0xa058(%esp)
 8049651:	00 00 00 00 
 8049655:	c7 84 24 5c a0 00 00 	movl   $0x0,0xa05c(%esp)
 804965c:	00 00 00 00 
 8049660:	66 c7 84 24 50 a0 00 	movw   $0x2,0xa050(%esp)
 8049667:	00 02 00 
 804966a:	8b 50 0c             	mov    0xc(%eax),%edx
 804966d:	89 54 24 08          	mov    %edx,0x8(%esp)
 8049671:	8d 94 24 54 a0 00 00 	lea    0xa054(%esp),%edx
 8049678:	89 54 24 04          	mov    %edx,0x4(%esp)
 804967c:	8b 40 10             	mov    0x10(%eax),%eax
 804967f:	8b 00                	mov    (%eax),%eax
 8049681:	89 04 24             	mov    %eax,(%esp)
 8049684:	e8 77 f1 ff ff       	call   8048800 <bcopy@plt>
 8049689:	0f b7 84 24 84 a0 00 	movzwl 0xa084(%esp),%eax
 8049690:	00 
 8049691:	66 c1 c8 08          	ror    $0x8,%ax
 8049695:	66 89 84 24 52 a0 00 	mov    %ax,0xa052(%esp)
 804969c:	00 
 804969d:	c7 44 24 08 10 00 00 	movl   $0x10,0x8(%esp)
 80496a4:	00 
 80496a5:	89 74 24 04          	mov    %esi,0x4(%esp)
 80496a9:	89 2c 24             	mov    %ebp,(%esp)
 80496ac:	e8 4f f2 ff ff       	call   8048900 <connect@plt>
 80496b1:	85 c0                	test   %eax,%eax
 80496b3:	79 61                	jns    8049716 <submitr+0x1fe>
 80496b5:	8b 8c 24 98 a0 00 00 	mov    0xa098(%esp),%ecx
 80496bc:	c7 01 45 72 72 6f    	movl   $0x6f727245,(%ecx)
 80496c2:	c7 41 04 72 3a 20 55 	movl   $0x55203a72,0x4(%ecx)
 80496c9:	c7 41 08 6e 61 62 6c 	movl   $0x6c62616e,0x8(%ecx)
 80496d0:	c7 41 0c 65 20 74 6f 	movl   $0x6f742065,0xc(%ecx)
 80496d7:	c7 41 10 20 63 6f 6e 	movl   $0x6e6f6320,0x10(%ecx)
 80496de:	c7 41 14 6e 65 63 74 	movl   $0x7463656e,0x14(%ecx)
 80496e5:	c7 41 18 20 74 6f 20 	movl   $0x206f7420,0x18(%ecx)
 80496ec:	c7 41 1c 74 68 65 20 	movl   $0x20656874,0x1c(%ecx)
 80496f3:	c7 41 20 73 65 72 76 	movl   $0x76726573,0x20(%ecx)
 80496fa:	66 c7 41 24 65 72    	movw   $0x7265,0x24(%ecx)
 8049700:	c6 41 26 00          	movb   $0x0,0x26(%ecx)
 8049704:	89 2c 24             	mov    %ebp,(%esp)
 8049707:	e8 04 f2 ff ff       	call   8048910 <close@plt>
 804970c:	b8 ff ff ff ff       	mov    $0xffffffff,%eax
 8049711:	e9 dc 05 00 00       	jmp    8049cf2 <submitr+0x7da>
 8049716:	ba ff ff ff ff       	mov    $0xffffffff,%edx
 804971b:	89 df                	mov    %ebx,%edi
 804971d:	b8 00 00 00 00       	mov    $0x0,%eax
 8049722:	89 d1                	mov    %edx,%ecx
 8049724:	f2 ae                	repnz scas %es:(%edi),%al
 8049726:	89 ce                	mov    %ecx,%esi
 8049728:	f7 d6                	not    %esi
 804972a:	8b bc 24 88 a0 00 00 	mov    0xa088(%esp),%edi
 8049731:	89 d1                	mov    %edx,%ecx
 8049733:	f2 ae                	repnz scas %es:(%edi),%al
 8049735:	89 4c 24 28          	mov    %ecx,0x28(%esp)
 8049739:	8b bc 24 8c a0 00 00 	mov    0xa08c(%esp),%edi
 8049740:	89 d1                	mov    %edx,%ecx
 8049742:	f2 ae                	repnz scas %es:(%edi),%al
 8049744:	f7 d1                	not    %ecx
 8049746:	89 4c 24 2c          	mov    %ecx,0x2c(%esp)
 804974a:	8b bc 24 90 a0 00 00 	mov    0xa090(%esp),%edi
 8049751:	89 d1                	mov    %edx,%ecx
 8049753:	f2 ae                	repnz scas %es:(%edi),%al
 8049755:	8b 44 24 2c          	mov    0x2c(%esp),%eax
 8049759:	2b 44 24 28          	sub    0x28(%esp),%eax
 804975d:	89 c2                	mov    %eax,%edx
 804975f:	29 ca                	sub    %ecx,%edx
 8049761:	8d 44 76 fd          	lea    -0x3(%esi,%esi,2),%eax
 8049765:	8d 44 02 7b          	lea    0x7b(%edx,%eax,1),%eax
 8049769:	3d 00 20 00 00       	cmp    $0x2000,%eax
 804976e:	76 7a                	jbe    80497ea <submitr+0x2d2>
 8049770:	8b 84 24 98 a0 00 00 	mov    0xa098(%esp),%eax
 8049777:	c7 00 45 72 72 6f    	movl   $0x6f727245,(%eax)
 804977d:	c7 40 04 72 3a 20 52 	movl   $0x52203a72,0x4(%eax)
 8049784:	c7 40 08 65 73 75 6c 	movl   $0x6c757365,0x8(%eax)
 804978b:	c7 40 0c 74 20 73 74 	movl   $0x74732074,0xc(%eax)
 8049792:	c7 40 10 72 69 6e 67 	movl   $0x676e6972,0x10(%eax)
 8049799:	c7 40 14 20 74 6f 6f 	movl   $0x6f6f7420,0x14(%eax)
 80497a0:	c7 40 18 20 6c 61 72 	movl   $0x72616c20,0x18(%eax)
 80497a7:	c7 40 1c 67 65 2e 20 	movl   $0x202e6567,0x1c(%eax)
 80497ae:	c7 40 20 49 6e 63 72 	movl   $0x72636e49,0x20(%eax)
 80497b5:	c7 40 24 65 61 73 65 	movl   $0x65736165,0x24(%eax)
 80497bc:	c7 40 28 20 53 55 42 	movl   $0x42555320,0x28(%eax)
 80497c3:	c7 40 2c 4d 49 54 52 	movl   $0x5254494d,0x2c(%eax)
 80497ca:	c7 40 30 5f 4d 41 58 	movl   $0x58414d5f,0x30(%eax)
 80497d1:	c7 40 34 42 55 46 00 	movl   $0x465542,0x34(%eax)
 80497d8:	89 2c 24             	mov    %ebp,(%esp)
 80497db:	e8 30 f1 ff ff       	call   8048910 <close@plt>
 80497e0:	b8 ff ff ff ff       	mov    $0xffffffff,%eax
 80497e5:	e9 08 05 00 00       	jmp    8049cf2 <submitr+0x7da>
 80497ea:	8d 94 24 44 40 00 00 	lea    0x4044(%esp),%edx
 80497f1:	b9 00 08 00 00       	mov    $0x800,%ecx
 80497f6:	b8 00 00 00 00       	mov    $0x0,%eax
 80497fb:	89 d7                	mov    %edx,%edi
 80497fd:	f3 ab                	rep stos %eax,%es:(%edi)
 80497ff:	89 df                	mov    %ebx,%edi
 8049801:	b9 ff ff ff ff       	mov    $0xffffffff,%ecx
 8049806:	f2 ae                	repnz scas %es:(%edi),%al
 8049808:	f7 d1                	not    %ecx
 804980a:	89 cf                	mov    %ecx,%edi
 804980c:	83 ef 01             	sub    $0x1,%edi
 804980f:	0f 84 f3 03 00 00    	je     8049c08 <submitr+0x6f0>
 8049815:	89 d6                	mov    %edx,%esi
 8049817:	0f b6 03             	movzbl (%ebx),%eax
 804981a:	3c 2d                	cmp    $0x2d,%al
 804981c:	74 24                	je     8049842 <submitr+0x32a>
 804981e:	3c 2a                	cmp    $0x2a,%al
 8049820:	74 20                	je     8049842 <submitr+0x32a>
 8049822:	3c 2e                	cmp    $0x2e,%al
 8049824:	74 1c                	je     8049842 <submitr+0x32a>
 8049826:	3c 5f                	cmp    $0x5f,%al
 8049828:	74 18                	je     8049842 <submitr+0x32a>
 804982a:	8d 50 d0             	lea    -0x30(%eax),%edx
 804982d:	80 fa 09             	cmp    $0x9,%dl
 8049830:	76 10                	jbe    8049842 <submitr+0x32a>
 8049832:	8d 50 bf             	lea    -0x41(%eax),%edx
 8049835:	80 fa 19             	cmp    $0x19,%dl
 8049838:	76 08                	jbe    8049842 <submitr+0x32a>
 804983a:	8d 50 9f             	lea    -0x61(%eax),%edx
 804983d:	80 fa 19             	cmp    $0x19,%dl
 8049840:	77 07                	ja     8049849 <submitr+0x331>
 8049842:	88 06                	mov    %al,(%esi)
 8049844:	83 c6 01             	add    $0x1,%esi
 8049847:	eb 51                	jmp    804989a <submitr+0x382>
 8049849:	3c 20                	cmp    $0x20,%al
 804984b:	75 08                	jne    8049855 <submitr+0x33d>
 804984d:	c6 06 2b             	movb   $0x2b,(%esi)
 8049850:	83 c6 01             	add    $0x1,%esi
 8049853:	eb 45                	jmp    804989a <submitr+0x382>
 8049855:	8d 50 e0             	lea    -0x20(%eax),%edx
 8049858:	80 fa 5f             	cmp    $0x5f,%dl
 804985b:	76 08                	jbe    8049865 <submitr+0x34d>
 804985d:	3c 09                	cmp    $0x9,%al
 804985f:	0f 85 0d 04 00 00    	jne    8049c72 <submitr+0x75a>
 8049865:	0f b6 c0             	movzbl %al,%eax
 8049868:	89 44 24 08          	mov    %eax,0x8(%esp)
 804986c:	c7 44 24 04 e4 a4 04 	movl   $0x804a4e4,0x4(%esp)
 8049873:	08 
 8049874:	8d 54 24 38          	lea    0x38(%esp),%edx
 8049878:	89 14 24             	mov    %edx,(%esp)
 804987b:	e8 40 f0 ff ff       	call   80488c0 <sprintf@plt>
 8049880:	0f b6 44 24 38       	movzbl 0x38(%esp),%eax
 8049885:	88 06                	mov    %al,(%esi)
 8049887:	0f b6 44 24 39       	movzbl 0x39(%esp),%eax
 804988c:	88 46 01             	mov    %al,0x1(%esi)
 804988f:	0f b6 44 24 3a       	movzbl 0x3a(%esp),%eax
 8049894:	88 46 02             	mov    %al,0x2(%esi)
 8049897:	83 c6 03             	add    $0x3,%esi
 804989a:	83 c3 01             	add    $0x1,%ebx
 804989d:	83 ef 01             	sub    $0x1,%edi
 80498a0:	0f 85 71 ff ff ff    	jne    8049817 <submitr+0x2ff>
 80498a6:	e9 5d 03 00 00       	jmp    8049c08 <submitr+0x6f0>
 80498ab:	89 5c 24 08          	mov    %ebx,0x8(%esp)
 80498af:	89 74 24 04          	mov    %esi,0x4(%esp)
 80498b3:	89 2c 24             	mov    %ebp,(%esp)
 80498b6:	e8 c5 ef ff ff       	call   8048880 <write@plt>
 80498bb:	85 c0                	test   %eax,%eax
 80498bd:	7f 0f                	jg     80498ce <submitr+0x3b6>
 80498bf:	e8 ec ef ff ff       	call   80488b0 <__errno_location@plt>
 80498c4:	83 38 04             	cmpl   $0x4,(%eax)
 80498c7:	75 0f                	jne    80498d8 <submitr+0x3c0>
 80498c9:	b8 00 00 00 00       	mov    $0x0,%eax
 80498ce:	01 c6                	add    %eax,%esi
 80498d0:	29 c3                	sub    %eax,%ebx
 80498d2:	75 d7                	jne    80498ab <submitr+0x393>
 80498d4:	85 ff                	test   %edi,%edi
 80498d6:	79 65                	jns    804993d <submitr+0x425>
 80498d8:	8b 8c 24 98 a0 00 00 	mov    0xa098(%esp),%ecx
 80498df:	c7 01 45 72 72 6f    	movl   $0x6f727245,(%ecx)
 80498e5:	c7 41 04 72 3a 20 43 	movl   $0x43203a72,0x4(%ecx)
 80498ec:	c7 41 08 6c 69 65 6e 	movl   $0x6e65696c,0x8(%ecx)
 80498f3:	c7 41 0c 74 20 75 6e 	movl   $0x6e752074,0xc(%ecx)
 80498fa:	c7 41 10 61 62 6c 65 	movl   $0x656c6261,0x10(%ecx)
 8049901:	c7 41 14 20 74 6f 20 	movl   $0x206f7420,0x14(%ecx)
 8049908:	c7 41 18 77 72 69 74 	movl   $0x74697277,0x18(%ecx)
 804990f:	c7 41 1c 65 20 74 6f 	movl   $0x6f742065,0x1c(%ecx)
 8049916:	c7 41 20 20 74 68 65 	movl   $0x65687420,0x20(%ecx)
 804991d:	c7 41 24 20 73 65 72 	movl   $0x72657320,0x24(%ecx)
 8049924:	c7 41 28 76 65 72 00 	movl   $0x726576,0x28(%ecx)
 804992b:	89 2c 24             	mov    %ebp,(%esp)
 804992e:	e8 dd ef ff ff       	call   8048910 <close@plt>
 8049933:	b8 ff ff ff ff       	mov    $0xffffffff,%eax
 8049938:	e9 b5 03 00 00       	jmp    8049cf2 <submitr+0x7da>
 804993d:	89 ac 24 44 80 00 00 	mov    %ebp,0x8044(%esp)
 8049944:	c7 84 24 48 80 00 00 	movl   $0x0,0x8048(%esp)
 804994b:	00 00 00 00 
 804994f:	8d 84 24 50 80 00 00 	lea    0x8050(%esp),%eax
 8049956:	89 84 24 4c 80 00 00 	mov    %eax,0x804c(%esp)
 804995d:	b9 00 20 00 00       	mov    $0x2000,%ecx
 8049962:	8d 94 24 44 60 00 00 	lea    0x6044(%esp),%edx
 8049969:	8d 84 24 44 80 00 00 	lea    0x8044(%esp),%eax
 8049970:	e8 6b fa ff ff       	call   80493e0 <rio_readlineb>
 8049975:	85 c0                	test   %eax,%eax
 8049977:	7f 79                	jg     80499f2 <submitr+0x4da>
 8049979:	8b 84 24 98 a0 00 00 	mov    0xa098(%esp),%eax
 8049980:	c7 00 45 72 72 6f    	movl   $0x6f727245,(%eax)
 8049986:	c7 40 04 72 3a 20 43 	movl   $0x43203a72,0x4(%eax)
 804998d:	c7 40 08 6c 69 65 6e 	movl   $0x6e65696c,0x8(%eax)
 8049994:	c7 40 0c 74 20 75 6e 	movl   $0x6e752074,0xc(%eax)
 804999b:	c7 40 10 61 62 6c 65 	movl   $0x656c6261,0x10(%eax)
 80499a2:	c7 40 14 20 74 6f 20 	movl   $0x206f7420,0x14(%eax)
 80499a9:	c7 40 18 72 65 61 64 	movl   $0x64616572,0x18(%eax)
 80499b0:	c7 40 1c 20 66 69 72 	movl   $0x72696620,0x1c(%eax)
 80499b7:	c7 40 20 73 74 20 68 	movl   $0x68207473,0x20(%eax)
 80499be:	c7 40 24 65 61 64 65 	movl   $0x65646165,0x24(%eax)
 80499c5:	c7 40 28 72 20 66 72 	movl   $0x72662072,0x28(%eax)
 80499cc:	c7 40 2c 6f 6d 20 73 	movl   $0x73206d6f,0x2c(%eax)
 80499d3:	c7 40 30 65 72 76 65 	movl   $0x65767265,0x30(%eax)
 80499da:	66 c7 40 34 72 00    	movw   $0x72,0x34(%eax)
 80499e0:	89 2c 24             	mov    %ebp,(%esp)
 80499e3:	e8 28 ef ff ff       	call   8048910 <close@plt>
 80499e8:	b8 ff ff ff ff       	mov    $0xffffffff,%eax
 80499ed:	e9 00 03 00 00       	jmp    8049cf2 <submitr+0x7da>
 80499f2:	8d 44 24 40          	lea    0x40(%esp),%eax
 80499f6:	89 44 24 10          	mov    %eax,0x10(%esp)
 80499fa:	8d 84 24 40 20 00 00 	lea    0x2040(%esp),%eax
 8049a01:	89 44 24 0c          	mov    %eax,0xc(%esp)
 8049a05:	8d 84 24 44 20 00 00 	lea    0x2044(%esp),%eax
 8049a0c:	89 44 24 08          	mov    %eax,0x8(%esp)
 8049a10:	c7 44 24 04 eb a4 04 	movl   $0x804a4eb,0x4(%esp)
 8049a17:	08 
 8049a18:	8d 84 24 44 60 00 00 	lea    0x6044(%esp),%eax
 8049a1f:	89 04 24             	mov    %eax,(%esp)
 8049a22:	e8 69 ee ff ff       	call   8048890 <__isoc99_sscanf@plt>
 8049a27:	8b 84 24 40 20 00 00 	mov    0x2040(%esp),%eax
 8049a2e:	3d c8 00 00 00       	cmp    $0xc8,%eax
 8049a33:	0f 84 c1 00 00 00    	je     8049afa <submitr+0x5e2>
 8049a39:	8d 54 24 40          	lea    0x40(%esp),%edx
 8049a3d:	89 54 24 0c          	mov    %edx,0xc(%esp)
 8049a41:	89 44 24 08          	mov    %eax,0x8(%esp)
 8049a45:	c7 44 24 04 fc a3 04 	movl   $0x804a3fc,0x4(%esp)
 8049a4c:	08 
 8049a4d:	8b 94 24 98 a0 00 00 	mov    0xa098(%esp),%edx
 8049a54:	89 14 24             	mov    %edx,(%esp)
 8049a57:	e8 64 ee ff ff       	call   80488c0 <sprintf@plt>
 8049a5c:	89 2c 24             	mov    %ebp,(%esp)
 8049a5f:	e8 ac ee ff ff       	call   8048910 <close@plt>
 8049a64:	b8 ff ff ff ff       	mov    $0xffffffff,%eax
 8049a69:	e9 84 02 00 00       	jmp    8049cf2 <submitr+0x7da>
 8049a6e:	b9 00 20 00 00       	mov    $0x2000,%ecx
 8049a73:	8d 94 24 44 60 00 00 	lea    0x6044(%esp),%edx
 8049a7a:	8d 84 24 44 80 00 00 	lea    0x8044(%esp),%eax
 8049a81:	e8 5a f9 ff ff       	call   80493e0 <rio_readlineb>
 8049a86:	85 c0                	test   %eax,%eax
 8049a88:	7f 70                	jg     8049afa <submitr+0x5e2>
 8049a8a:	8b 8c 24 98 a0 00 00 	mov    0xa098(%esp),%ecx
 8049a91:	c7 01 45 72 72 6f    	movl   $0x6f727245,(%ecx)
 8049a97:	c7 41 04 72 3a 20 43 	movl   $0x43203a72,0x4(%ecx)
 8049a9e:	c7 41 08 6c 69 65 6e 	movl   $0x6e65696c,0x8(%ecx)
 8049aa5:	c7 41 0c 74 20 75 6e 	movl   $0x6e752074,0xc(%ecx)
 8049aac:	c7 41 10 61 62 6c 65 	movl   $0x656c6261,0x10(%ecx)
 8049ab3:	c7 41 14 20 74 6f 20 	movl   $0x206f7420,0x14(%ecx)
 8049aba:	c7 41 18 72 65 61 64 	movl   $0x64616572,0x18(%ecx)
 8049ac1:	c7 41 1c 20 68 65 61 	movl   $0x61656820,0x1c(%ecx)
 8049ac8:	c7 41 20 64 65 72 73 	movl   $0x73726564,0x20(%ecx)
 8049acf:	c7 41 24 20 66 72 6f 	movl   $0x6f726620,0x24(%ecx)
 8049ad6:	c7 41 28 6d 20 73 65 	movl   $0x6573206d,0x28(%ecx)
 8049add:	c7 41 2c 72 76 65 72 	movl   $0x72657672,0x2c(%ecx)
 8049ae4:	c6 41 30 00          	movb   $0x0,0x30(%ecx)
 8049ae8:	89 2c 24             	mov    %ebp,(%esp)
 8049aeb:	e8 20 ee ff ff       	call   8048910 <close@plt>
 8049af0:	b8 ff ff ff ff       	mov    $0xffffffff,%eax
 8049af5:	e9 f8 01 00 00       	jmp    8049cf2 <submitr+0x7da>
 8049afa:	80 bc 24 44 60 00 00 	cmpb   $0xd,0x6044(%esp)
 8049b01:	0d 
 8049b02:	0f 85 66 ff ff ff    	jne    8049a6e <submitr+0x556>
 8049b08:	80 bc 24 45 60 00 00 	cmpb   $0xa,0x6045(%esp)
 8049b0f:	0a 
 8049b10:	0f 85 58 ff ff ff    	jne    8049a6e <submitr+0x556>
 8049b16:	80 bc 24 46 60 00 00 	cmpb   $0x0,0x6046(%esp)
 8049b1d:	00 
 8049b1e:	0f 85 4a ff ff ff    	jne    8049a6e <submitr+0x556>
 8049b24:	b9 00 20 00 00       	mov    $0x2000,%ecx
 8049b29:	8d 94 24 44 60 00 00 	lea    0x6044(%esp),%edx
 8049b30:	8d 84 24 44 80 00 00 	lea    0x8044(%esp),%eax
 8049b37:	e8 a4 f8 ff ff       	call   80493e0 <rio_readlineb>
 8049b3c:	85 c0                	test   %eax,%eax
 8049b3e:	7f 7a                	jg     8049bba <submitr+0x6a2>
 8049b40:	8b 84 24 98 a0 00 00 	mov    0xa098(%esp),%eax
 8049b47:	c7 00 45 72 72 6f    	movl   $0x6f727245,(%eax)
 8049b4d:	c7 40 04 72 3a 20 43 	movl   $0x43203a72,0x4(%eax)
 8049b54:	c7 40 08 6c 69 65 6e 	movl   $0x6e65696c,0x8(%eax)
 8049b5b:	c7 40 0c 74 20 75 6e 	movl   $0x6e752074,0xc(%eax)
 8049b62:	c7 40 10 61 62 6c 65 	movl   $0x656c6261,0x10(%eax)
 8049b69:	c7 40 14 20 74 6f 20 	movl   $0x206f7420,0x14(%eax)
 8049b70:	c7 40 18 72 65 61 64 	movl   $0x64616572,0x18(%eax)
 8049b77:	c7 40 1c 20 73 74 61 	movl   $0x61747320,0x1c(%eax)
 8049b7e:	c7 40 20 74 75 73 20 	movl   $0x20737574,0x20(%eax)
 8049b85:	c7 40 24 6d 65 73 73 	movl   $0x7373656d,0x24(%eax)
 8049b8c:	c7 40 28 61 67 65 20 	movl   $0x20656761,0x28(%eax)
 8049b93:	c7 40 2c 66 72 6f 6d 	movl   $0x6d6f7266,0x2c(%eax)
 8049b9a:	c7 40 30 20 73 65 72 	movl   $0x72657320,0x30(%eax)
 8049ba1:	c7 40 34 76 65 72 00 	movl   $0x726576,0x34(%eax)
 8049ba8:	89 2c 24             	mov    %ebp,(%esp)
 8049bab:	e8 60 ed ff ff       	call   8048910 <close@plt>
 8049bb0:	b8 ff ff ff ff       	mov    $0xffffffff,%eax
 8049bb5:	e9 38 01 00 00       	jmp    8049cf2 <submitr+0x7da>
 8049bba:	8d 84 24 44 60 00 00 	lea    0x6044(%esp),%eax
 8049bc1:	89 44 24 04          	mov    %eax,0x4(%esp)
 8049bc5:	8b 94 24 98 a0 00 00 	mov    0xa098(%esp),%edx
 8049bcc:	89 14 24             	mov    %edx,(%esp)
 8049bcf:	e8 3c ec ff ff       	call   8048810 <strcpy@plt>
 8049bd4:	89 2c 24             	mov    %ebp,(%esp)
 8049bd7:	e8 34 ed ff ff       	call   8048910 <close@plt>
 8049bdc:	b8 ff ff ff ff       	mov    $0xffffffff,%eax
 8049be1:	8b 8c 24 98 a0 00 00 	mov    0xa098(%esp),%ecx
 8049be8:	80 39 4f             	cmpb   $0x4f,(%ecx)
 8049beb:	0f 85 01 01 00 00    	jne    8049cf2 <submitr+0x7da>
 8049bf1:	80 79 01 4b          	cmpb   $0x4b,0x1(%ecx)
 8049bf5:	0f 85 f7 00 00 00    	jne    8049cf2 <submitr+0x7da>
 8049bfb:	80 79 02 01          	cmpb   $0x1,0x2(%ecx)
 8049bff:	19 c0                	sbb    %eax,%eax
 8049c01:	f7 d0                	not    %eax
 8049c03:	e9 ea 00 00 00       	jmp    8049cf2 <submitr+0x7da>
 8049c08:	8d 84 24 44 40 00 00 	lea    0x4044(%esp),%eax
 8049c0f:	89 44 24 14          	mov    %eax,0x14(%esp)
 8049c13:	8b 84 24 90 a0 00 00 	mov    0xa090(%esp),%eax
 8049c1a:	89 44 24 10          	mov    %eax,0x10(%esp)
 8049c1e:	8b 94 24 8c a0 00 00 	mov    0xa08c(%esp),%edx
 8049c25:	89 54 24 0c          	mov    %edx,0xc(%esp)
 8049c29:	8b 8c 24 88 a0 00 00 	mov    0xa088(%esp),%ecx
 8049c30:	89 4c 24 08          	mov    %ecx,0x8(%esp)
 8049c34:	c7 44 24 04 2c a4 04 	movl   $0x804a42c,0x4(%esp)
 8049c3b:	08 
 8049c3c:	8d bc 24 44 60 00 00 	lea    0x6044(%esp),%edi
 8049c43:	89 3c 24             	mov    %edi,(%esp)
 8049c46:	e8 75 ec ff ff       	call   80488c0 <sprintf@plt>
 8049c4b:	b8 00 00 00 00       	mov    $0x0,%eax
 8049c50:	b9 ff ff ff ff       	mov    $0xffffffff,%ecx
 8049c55:	f2 ae                	repnz scas %es:(%edi),%al
 8049c57:	f7 d1                	not    %ecx
 8049c59:	8d 79 ff             	lea    -0x1(%ecx),%edi
 8049c5c:	89 fb                	mov    %edi,%ebx
 8049c5e:	8d b4 24 44 60 00 00 	lea    0x6044(%esp),%esi
 8049c65:	85 ff                	test   %edi,%edi
 8049c67:	0f 85 3e fc ff ff    	jne    80498ab <submitr+0x393>
 8049c6d:	e9 cb fc ff ff       	jmp    804993d <submitr+0x425>
 8049c72:	8b bc 24 98 a0 00 00 	mov    0xa098(%esp),%edi
 8049c79:	be 78 a4 04 08       	mov    $0x804a478,%esi
 8049c7e:	b8 43 00 00 00       	mov    $0x43,%eax
 8049c83:	f7 c7 01 00 00 00    	test   $0x1,%edi
 8049c89:	74 1d                	je     8049ca8 <submitr+0x790>
 8049c8b:	0f b6 05 78 a4 04 08 	movzbl 0x804a478,%eax
 8049c92:	88 07                	mov    %al,(%edi)
 8049c94:	8b bc 24 98 a0 00 00 	mov    0xa098(%esp),%edi
 8049c9b:	83 c7 01             	add    $0x1,%edi
 8049c9e:	be 79 a4 04 08       	mov    $0x804a479,%esi
 8049ca3:	b8 42 00 00 00       	mov    $0x42,%eax
 8049ca8:	f7 c7 02 00 00 00    	test   $0x2,%edi
 8049cae:	74 0f                	je     8049cbf <submitr+0x7a7>
 8049cb0:	0f b7 16             	movzwl (%esi),%edx
 8049cb3:	66 89 17             	mov    %dx,(%edi)
 8049cb6:	83 c7 02             	add    $0x2,%edi
 8049cb9:	83 c6 02             	add    $0x2,%esi
 8049cbc:	83 e8 02             	sub    $0x2,%eax
 8049cbf:	89 c1                	mov    %eax,%ecx
 8049cc1:	c1 e9 02             	shr    $0x2,%ecx
 8049cc4:	f3 a5                	rep movsl %ds:(%esi),%es:(%edi)
 8049cc6:	ba 00 00 00 00       	mov    $0x0,%edx
 8049ccb:	a8 02                	test   $0x2,%al
 8049ccd:	74 0b                	je     8049cda <submitr+0x7c2>
 8049ccf:	0f b7 16             	movzwl (%esi),%edx
 8049cd2:	66 89 17             	mov    %dx,(%edi)
 8049cd5:	ba 02 00 00 00       	mov    $0x2,%edx
 8049cda:	a8 01                	test   $0x1,%al
 8049cdc:	74 07                	je     8049ce5 <submitr+0x7cd>
 8049cde:	0f b6 04 16          	movzbl (%esi,%edx,1),%eax
 8049ce2:	88 04 17             	mov    %al,(%edi,%edx,1)
 8049ce5:	89 2c 24             	mov    %ebp,(%esp)
 8049ce8:	e8 23 ec ff ff       	call   8048910 <close@plt>
 8049ced:	b8 ff ff ff ff       	mov    $0xffffffff,%eax
 8049cf2:	81 c4 6c a0 00 00    	add    $0xa06c,%esp
 8049cf8:	5b                   	pop    %ebx
 8049cf9:	5e                   	pop    %esi
 8049cfa:	5f                   	pop    %edi
 8049cfb:	5d                   	pop    %ebp
 8049cfc:	c3                   	ret    

08049cfd <init_timeout>:
 8049cfd:	53                   	push   %ebx
 8049cfe:	83 ec 18             	sub    $0x18,%esp
 8049d01:	8b 5c 24 20          	mov    0x20(%esp),%ebx
 8049d05:	85 db                	test   %ebx,%ebx
 8049d07:	74 25                	je     8049d2e <init_timeout+0x31>
 8049d09:	c7 44 24 04 ec 94 04 	movl   $0x80494ec,0x4(%esp)
 8049d10:	08 
 8049d11:	c7 04 24 0e 00 00 00 	movl   $0xe,(%esp)
 8049d18:	e8 b3 ea ff ff       	call   80487d0 <signal@plt>
 8049d1d:	89 d8                	mov    %ebx,%eax
 8049d1f:	c1 f8 1f             	sar    $0x1f,%eax
 8049d22:	f7 d0                	not    %eax
 8049d24:	21 c3                	and    %eax,%ebx
 8049d26:	89 1c 24             	mov    %ebx,(%esp)
 8049d29:	e8 c2 ea ff ff       	call   80487f0 <alarm@plt>
 8049d2e:	83 c4 18             	add    $0x18,%esp
 8049d31:	5b                   	pop    %ebx
 8049d32:	c3                   	ret    

08049d33 <init_driver>:
 8049d33:	57                   	push   %edi
 8049d34:	56                   	push   %esi
 8049d35:	53                   	push   %ebx
 8049d36:	83 ec 20             	sub    $0x20,%esp
 8049d39:	8b 74 24 30          	mov    0x30(%esp),%esi
 8049d3d:	c7 44 24 04 01 00 00 	movl   $0x1,0x4(%esp)
 8049d44:	00 
 8049d45:	c7 04 24 0d 00 00 00 	movl   $0xd,(%esp)
 8049d4c:	e8 7f ea ff ff       	call   80487d0 <signal@plt>
 8049d51:	c7 44 24 04 01 00 00 	movl   $0x1,0x4(%esp)
 8049d58:	00 
 8049d59:	c7 04 24 1d 00 00 00 	movl   $0x1d,(%esp)
 8049d60:	e8 6b ea ff ff       	call   80487d0 <signal@plt>
 8049d65:	c7 44 24 04 01 00 00 	movl   $0x1,0x4(%esp)
 8049d6c:	00 
 8049d6d:	c7 04 24 1d 00 00 00 	movl   $0x1d,(%esp)
 8049d74:	e8 57 ea ff ff       	call   80487d0 <signal@plt>
 8049d79:	c7 44 24 08 00 00 00 	movl   $0x0,0x8(%esp)
 8049d80:	00 
 8049d81:	c7 44 24 04 01 00 00 	movl   $0x1,0x4(%esp)
 8049d88:	00 
 8049d89:	c7 04 24 02 00 00 00 	movl   $0x2,(%esp)
 8049d90:	e8 3b eb ff ff       	call   80488d0 <socket@plt>
 8049d95:	89 c3                	mov    %eax,%ebx
 8049d97:	85 c0                	test   %eax,%eax
 8049d99:	79 4e                	jns    8049de9 <init_driver+0xb6>
 8049d9b:	c7 06 45 72 72 6f    	movl   $0x6f727245,(%esi)
 8049da1:	c7 46 04 72 3a 20 43 	movl   $0x43203a72,0x4(%esi)
 8049da8:	c7 46 08 6c 69 65 6e 	movl   $0x6e65696c,0x8(%esi)
 8049daf:	c7 46 0c 74 20 75 6e 	movl   $0x6e752074,0xc(%esi)
 8049db6:	c7 46 10 61 62 6c 65 	movl   $0x656c6261,0x10(%esi)
 8049dbd:	c7 46 14 20 74 6f 20 	movl   $0x206f7420,0x14(%esi)
 8049dc4:	c7 46 18 63 72 65 61 	movl   $0x61657263,0x18(%esi)
 8049dcb:	c7 46 1c 74 65 20 73 	movl   $0x73206574,0x1c(%esi)
 8049dd2:	c7 46 20 6f 63 6b 65 	movl   $0x656b636f,0x20(%esi)
 8049dd9:	66 c7 46 24 74 00    	movw   $0x74,0x24(%esi)
 8049ddf:	b8 ff ff ff ff       	mov    $0xffffffff,%eax
 8049de4:	e9 1b 01 00 00       	jmp    8049f04 <init_driver+0x1d1>
 8049de9:	c7 04 24 fc a4 04 08 	movl   $0x804a4fc,(%esp)
 8049df0:	e8 eb ea ff ff       	call   80488e0 <gethostbyname@plt>
 8049df5:	85 c0                	test   %eax,%eax
 8049df7:	75 68                	jne    8049e61 <init_driver+0x12e>
 8049df9:	c7 06 45 72 72 6f    	movl   $0x6f727245,(%esi)
 8049dff:	c7 46 04 72 3a 20 44 	movl   $0x44203a72,0x4(%esi)
 8049e06:	c7 46 08 4e 53 20 69 	movl   $0x6920534e,0x8(%esi)
 8049e0d:	c7 46 0c 73 20 75 6e 	movl   $0x6e752073,0xc(%esi)
 8049e14:	c7 46 10 61 62 6c 65 	movl   $0x656c6261,0x10(%esi)
 8049e1b:	c7 46 14 20 74 6f 20 	movl   $0x206f7420,0x14(%esi)
 8049e22:	c7 46 18 72 65 73 6f 	movl   $0x6f736572,0x18(%esi)
 8049e29:	c7 46 1c 6c 76 65 20 	movl   $0x2065766c,0x1c(%esi)
 8049e30:	c7 46 20 73 65 72 76 	movl   $0x76726573,0x20(%esi)
 8049e37:	c7 46 24 65 72 20 61 	movl   $0x61207265,0x24(%esi)
 8049e3e:	c7 46 28 64 64 72 65 	movl   $0x65726464,0x28(%esi)
 8049e45:	66 c7 46 2c 73 73    	movw   $0x7373,0x2c(%esi)
 8049e4b:	c6 46 2e 00          	movb   $0x0,0x2e(%esi)
 8049e4f:	89 1c 24             	mov    %ebx,(%esp)
 8049e52:	e8 b9 ea ff ff       	call   8048910 <close@plt>
 8049e57:	b8 ff ff ff ff       	mov    $0xffffffff,%eax
 8049e5c:	e9 a3 00 00 00       	jmp    8049f04 <init_driver+0x1d1>
 8049e61:	8d 7c 24 10          	lea    0x10(%esp),%edi
 8049e65:	c7 44 24 10 00 00 00 	movl   $0x0,0x10(%esp)
 8049e6c:	00 
 8049e6d:	c7 44 24 14 00 00 00 	movl   $0x0,0x14(%esp)
 8049e74:	00 
 8049e75:	c7 44 24 18 00 00 00 	movl   $0x0,0x18(%esp)
 8049e7c:	00 
 8049e7d:	c7 44 24 1c 00 00 00 	movl   $0x0,0x1c(%esp)
 8049e84:	00 
 8049e85:	66 c7 44 24 10 02 00 	movw   $0x2,0x10(%esp)
 8049e8c:	8b 50 0c             	mov    0xc(%eax),%edx
 8049e8f:	89 54 24 08          	mov    %edx,0x8(%esp)
 8049e93:	8d 54 24 14          	lea    0x14(%esp),%edx
 8049e97:	89 54 24 04          	mov    %edx,0x4(%esp)
 8049e9b:	8b 40 10             	mov    0x10(%eax),%eax
 8049e9e:	8b 00                	mov    (%eax),%eax
 8049ea0:	89 04 24             	mov    %eax,(%esp)
 8049ea3:	e8 58 e9 ff ff       	call   8048800 <bcopy@plt>
 8049ea8:	66 c7 44 24 12 3b 6e 	movw   $0x6e3b,0x12(%esp)
 8049eaf:	c7 44 24 08 10 00 00 	movl   $0x10,0x8(%esp)
 8049eb6:	00 
 8049eb7:	89 7c 24 04          	mov    %edi,0x4(%esp)
 8049ebb:	89 1c 24             	mov    %ebx,(%esp)
 8049ebe:	e8 3d ea ff ff       	call   8048900 <connect@plt>
 8049ec3:	85 c0                	test   %eax,%eax
 8049ec5:	79 27                	jns    8049eee <init_driver+0x1bb>
 8049ec7:	c7 44 24 08 fc a4 04 	movl   $0x804a4fc,0x8(%esp)
 8049ece:	08 
 8049ecf:	c7 44 24 04 bc a4 04 	movl   $0x804a4bc,0x4(%esp)
 8049ed6:	08 
 8049ed7:	89 34 24             	mov    %esi,(%esp)
 8049eda:	e8 e1 e9 ff ff       	call   80488c0 <sprintf@plt>
 8049edf:	89 1c 24             	mov    %ebx,(%esp)
 8049ee2:	e8 29 ea ff ff       	call   8048910 <close@plt>
 8049ee7:	b8 ff ff ff ff       	mov    $0xffffffff,%eax
 8049eec:	eb 16                	jmp    8049f04 <init_driver+0x1d1>
 8049eee:	89 1c 24             	mov    %ebx,(%esp)
 8049ef1:	e8 1a ea ff ff       	call   8048910 <close@plt>
 8049ef6:	66 c7 06 4f 4b       	movw   $0x4b4f,(%esi)
 8049efb:	c6 46 02 00          	movb   $0x0,0x2(%esi)
 8049eff:	b8 00 00 00 00       	mov    $0x0,%eax
 8049f04:	83 c4 20             	add    $0x20,%esp
 8049f07:	5b                   	pop    %ebx
 8049f08:	5e                   	pop    %esi
 8049f09:	5f                   	pop    %edi
 8049f0a:	c3                   	ret    

08049f0b <driver_post>:
 8049f0b:	53                   	push   %ebx
 8049f0c:	83 ec 28             	sub    $0x28,%esp
 8049f0f:	8b 44 24 30          	mov    0x30(%esp),%eax
 8049f13:	8b 5c 24 3c          	mov    0x3c(%esp),%ebx
 8049f17:	83 7c 24 38 00       	cmpl   $0x0,0x38(%esp)
 8049f1c:	74 24                	je     8049f42 <driver_post+0x37>
 8049f1e:	8b 44 24 34          	mov    0x34(%esp),%eax
 8049f22:	89 44 24 04          	mov    %eax,0x4(%esp)
 8049f26:	c7 04 24 14 a5 04 08 	movl   $0x804a514,(%esp)
 8049f2d:	e8 5e e8 ff ff       	call   8048790 <printf@plt>
 8049f32:	66 c7 03 4f 4b       	movw   $0x4b4f,(%ebx)
 8049f37:	c6 43 02 00          	movb   $0x0,0x2(%ebx)
 8049f3b:	b8 00 00 00 00       	mov    $0x0,%eax
 8049f40:	eb 4d                	jmp    8049f8f <driver_post+0x84>
 8049f42:	85 c0                	test   %eax,%eax
 8049f44:	74 3b                	je     8049f81 <driver_post+0x76>
 8049f46:	80 38 00             	cmpb   $0x0,(%eax)
 8049f49:	74 36                	je     8049f81 <driver_post+0x76>
 8049f4b:	89 5c 24 18          	mov    %ebx,0x18(%esp)
 8049f4f:	8b 54 24 34          	mov    0x34(%esp),%edx
 8049f53:	89 54 24 14          	mov    %edx,0x14(%esp)
 8049f57:	c7 44 24 10 2b a5 04 	movl   $0x804a52b,0x10(%esp)
 8049f5e:	08 
 8049f5f:	89 44 24 0c          	mov    %eax,0xc(%esp)
 8049f63:	c7 44 24 08 33 a5 04 	movl   $0x804a533,0x8(%esp)
 8049f6a:	08 
 8049f6b:	c7 44 24 04 6e 3b 00 	movl   $0x3b6e,0x4(%esp)
 8049f72:	00 
 8049f73:	c7 04 24 fc a4 04 08 	movl   $0x804a4fc,(%esp)
 8049f7a:	e8 99 f5 ff ff       	call   8049518 <submitr>
 8049f7f:	eb 0e                	jmp    8049f8f <driver_post+0x84>
 8049f81:	66 c7 03 4f 4b       	movw   $0x4b4f,(%ebx)
 8049f86:	c6 43 02 00          	movb   $0x0,0x2(%ebx)
 8049f8a:	b8 00 00 00 00       	mov    $0x0,%eax
 8049f8f:	83 c4 28             	add    $0x28,%esp
 8049f92:	5b                   	pop    %ebx
 8049f93:	c3                   	ret    
 8049f94:	90                   	nop
 8049f95:	90                   	nop
 8049f96:	90                   	nop
 8049f97:	90                   	nop
 8049f98:	90                   	nop
 8049f99:	90                   	nop
 8049f9a:	90                   	nop
 8049f9b:	90                   	nop
 8049f9c:	90                   	nop
 8049f9d:	90                   	nop
 8049f9e:	90                   	nop
 8049f9f:	90                   	nop

08049fa0 <__libc_csu_fini>:
 8049fa0:	55                   	push   %ebp
 8049fa1:	89 e5                	mov    %esp,%ebp
 8049fa3:	5d                   	pop    %ebp
 8049fa4:	c3                   	ret    
 8049fa5:	8d 74 26 00          	lea    0x0(%esi,%eiz,1),%esi
 8049fa9:	8d bc 27 00 00 00 00 	lea    0x0(%edi,%eiz,1),%edi

08049fb0 <__libc_csu_init>:
 8049fb0:	55                   	push   %ebp
 8049fb1:	89 e5                	mov    %esp,%ebp
 8049fb3:	57                   	push   %edi
 8049fb4:	56                   	push   %esi
 8049fb5:	53                   	push   %ebx
 8049fb6:	e8 4f 00 00 00       	call   804a00a <__i686.get_pc_thunk.bx>
 8049fbb:	81 c3 45 11 00 00    	add    $0x1145,%ebx
 8049fc1:	83 ec 1c             	sub    $0x1c,%esp
 8049fc4:	e8 7f e7 ff ff       	call   8048748 <_init>
 8049fc9:	8d bb 04 ff ff ff    	lea    -0xfc(%ebx),%edi
 8049fcf:	8d 83 00 ff ff ff    	lea    -0x100(%ebx),%eax
 8049fd5:	29 c7                	sub    %eax,%edi
 8049fd7:	c1 ff 02             	sar    $0x2,%edi
 8049fda:	85 ff                	test   %edi,%edi
 8049fdc:	74 24                	je     804a002 <__libc_csu_init+0x52>
 8049fde:	31 f6                	xor    %esi,%esi
 8049fe0:	8b 45 10             	mov    0x10(%ebp),%eax
 8049fe3:	89 44 24 08          	mov    %eax,0x8(%esp)
 8049fe7:	8b 45 0c             	mov    0xc(%ebp),%eax
 8049fea:	89 44 24 04          	mov    %eax,0x4(%esp)
 8049fee:	8b 45 08             	mov    0x8(%ebp),%eax
 8049ff1:	89 04 24             	mov    %eax,(%esp)
 8049ff4:	ff 94 b3 00 ff ff ff 	call   *-0x100(%ebx,%esi,4)
 8049ffb:	83 c6 01             	add    $0x1,%esi
 8049ffe:	39 fe                	cmp    %edi,%esi
 804a000:	72 de                	jb     8049fe0 <__libc_csu_init+0x30>
 804a002:	83 c4 1c             	add    $0x1c,%esp
 804a005:	5b                   	pop    %ebx
 804a006:	5e                   	pop    %esi
 804a007:	5f                   	pop    %edi
 804a008:	5d                   	pop    %ebp
 804a009:	c3                   	ret    

0804a00a <__i686.get_pc_thunk.bx>:
 804a00a:	8b 1c 24             	mov    (%esp),%ebx
 804a00d:	c3                   	ret    
 804a00e:	90                   	nop
 804a00f:	90                   	nop

Disassembly of section .fini:

0804a010 <_fini>:
 804a010:	55                   	push   %ebp
 804a011:	89 e5                	mov    %esp,%ebp
 804a013:	53                   	push   %ebx
 804a014:	83 ec 04             	sub    $0x4,%esp
 804a017:	e8 00 00 00 00       	call   804a01c <_fini+0xc>
 804a01c:	5b                   	pop    %ebx
 804a01d:	81 c3 e4 10 00 00    	add    $0x10e4,%ebx
 804a023:	59                   	pop    %ecx
 804a024:	5b                   	pop    %ebx
 804a025:	c9                   	leave  
 804a026:	c3                   	ret    
